
test_encry_decry.elf:     file format elf32-littleriscv
test_encry_decry.elf
architecture: riscv:rv32, flags 0x00000112:
EXEC_P, HAS_SYMS, D_PAGED
start address 0x80000000

Program Header:
    LOAD off    0x00001000 vaddr 0x80000000 paddr 0x80000000 align 2**12
         filesz 0x000028b8 memsz 0x000028b8 flags rwx
    LOAD off    0x00004000 vaddr 0x90000000 paddr 0x800028b8 align 2**12
         filesz 0x0000007c memsz 0x0000007c flags rw-
    LOAD off    0x0000007c vaddr 0x9000007c paddr 0x9000007c align 2**12
         filesz 0x00000000 memsz 0x0000013c flags rw-
    LOAD off    0x00000800 vaddr 0x9000f800 paddr 0x900001b8 align 2**12
         filesz 0x00000000 memsz 0x00000800 flags rw-

Sections:
Idx Name              Size      VMA       LMA       File off  Algn  Flags
  0 .init             000000ba  80000000  80000000  00001000  2**0  CONTENTS, ALLOC, LOAD, READONLY, CODE
  1 .ilalign          00000002  800000ba  800000ba  000010ba  2**0  ALLOC
  2 .text             0000242e  800000bc  800000bc  000010bc  2**2  CONTENTS, ALLOC, LOAD, READONLY, CODE
  3 .rodata           000003cc  800024ec  800024ec  000034ec  2**2  CONTENTS, ALLOC, LOAD, READONLY, DATA
  4 .lalign           00000000  800028b8  800028b8  0000407c  2**0  CONTENTS
  5 .dalign           00000000  90000000  90000000  0000407c  2**0  CONTENTS
  6 .data             0000007c  90000000  800028b8  00004000  2**2  CONTENTS, ALLOC, LOAD, DATA
  7 .bss              0000013c  9000007c  9000007c  0000407c  2**2  ALLOC
  8 .stack            00000800  9000f800  900001b8  00004800  2**0  ALLOC
  9 .debug_info       00003029  00000000  00000000  0000407c  2**0  CONTENTS, READONLY, DEBUGGING, OCTETS
 10 .debug_abbrev     00001023  00000000  00000000  000070a5  2**0  CONTENTS, READONLY, DEBUGGING, OCTETS
 11 .debug_aranges    000003b0  00000000  00000000  000080c8  2**3  CONTENTS, READONLY, DEBUGGING, OCTETS
 12 .debug_ranges     00000370  00000000  00000000  00008478  2**0  CONTENTS, READONLY, DEBUGGING, OCTETS
 13 .debug_line       0000341e  00000000  00000000  000087e8  2**0  CONTENTS, READONLY, DEBUGGING, OCTETS
 14 .debug_str        00001443  00000000  00000000  0000bc06  2**0  CONTENTS, READONLY, DEBUGGING, OCTETS
 15 .comment          00000012  00000000  00000000  0000d049  2**0  CONTENTS, READONLY
 16 .riscv.attributes 0000002f  00000000  00000000  0000d05b  2**0  CONTENTS, READONLY
 17 .debug_frame      00000a04  00000000  00000000  0000d08c  2**2  CONTENTS, READONLY, DEBUGGING, OCTETS
 18 .debug_loc        00000bdd  00000000  00000000  0000da90  2**0  CONTENTS, READONLY, DEBUGGING, OCTETS
SYMBOL TABLE:
80000000 l    d  .init	00000000 .init
800000ba l    d  .ilalign	00000000 .ilalign
800000bc l    d  .text	00000000 .text
800024ec l    d  .rodata	00000000 .rodata
800028b8 l    d  .lalign	00000000 .lalign
90000000 l    d  .dalign	00000000 .dalign
90000000 l    d  .data	00000000 .data
9000007c l    d  .bss	00000000 .bss
9000f800 l    d  .stack	00000000 .stack
00000000 l    d  .debug_info	00000000 .debug_info
00000000 l    d  .debug_abbrev	00000000 .debug_abbrev
00000000 l    d  .debug_aranges	00000000 .debug_aranges
00000000 l    d  .debug_ranges	00000000 .debug_ranges
00000000 l    d  .debug_line	00000000 .debug_line
00000000 l    d  .debug_str	00000000 .debug_str
00000000 l    d  .comment	00000000 .comment
00000000 l    d  .riscv.attributes	00000000 .riscv.attributes
00000000 l    d  .debug_frame	00000000 .debug_frame
00000000 l    d  .debug_loc	00000000 .debug_loc
00000000 l    df *ABS*	00000000 close.c
00000000 l    df *ABS*	00000000 fstat.c
00000000 l    df *ABS*	00000000 isatty.c
00000000 l    df *ABS*	00000000 lseek.c
00000000 l    df *ABS*	00000000 read.c
00000000 l    df *ABS*	00000000 sbrk.c
90000060 l     O .data	00000004 curbrk.0
00000000 l    df *ABS*	00000000 write.c
00000000 l    df *ABS*	00000000 des_aes.c
00000000 l    df *ABS*	00000000 hbirdv2_gpio.c
00000000 l    df *ABS*	00000000 hbirdv2_uart.c
00000000 l    df *ABS*	00000000 hbirdv2_common.c
00000000 l    df *ABS*	00000000 system_hbirdv2.c
90000094 l     O .bss	0000002c SystemExceptionHandlers
900000c0 l     O .bss	00000044 SystemExtInterruptHandlers
90000104 l     O .bss	00000028 SystemCoreInterruptHandlers
800006e4 l     F .text	0000005a system_default_exception_handler
8000073e l     F .text	00000062 system_default_interrupt_handler
800007a0 l     F .text	00000040 Exception_Init
800007e0 l     F .text	00000070 Interrupt_Init
80000988 l     F .text	00000068 core_exception_handler
00000000 l    df *ABS*	00000000 main.c
90000068 l     O .data	00000004 value3
9000006c l     O .data	00000004 value2
90000070 l     O .data	00000004 value1
9000007c l     O .bss	00000004 value0
90000080 l     O .bss	00000004 flag
00000000 l    df *ABS*	00000000 libgcc2.c
00000000 l    df *ABS*	00000000 atexit.c
00000000 l    df *ABS*	00000000 fini.c
00000000 l    df *ABS*	00000000 init.c
00000000 l    df *ABS*	00000000 printf.c
00000000 l    df *ABS*	00000000 puts.c
00000000 l    df *ABS*	00000000 sysisatty.c
00000000 l    df *ABS*	00000000 wbuf.c
00000000 l    df *ABS*	00000000 wsetup.c
00000000 l    df *ABS*	00000000 __atexit.c
9000012c l     O .bss	0000008c _global_atexit0
00000000 l    df *ABS*	00000000 fflush.c
00000000 l    df *ABS*	00000000 findfp.c
80001738 l     F .text	00000068 std
00000000 l    df *ABS*	00000000 fwalk.c
00000000 l    df *ABS*	00000000 makebuf.c
00000000 l    df *ABS*	00000000 nano-mallocr.c
00000000 l    df *ABS*	00000000 nano-mallocr.c
00000000 l    df *ABS*	00000000 nano-vfprintf.c
80001c70 l     F .text	0000002a __sfputc_r
00000000 l    df *ABS*	00000000 nano-vfprintf_i.c
00000000 l    df *ABS*	00000000 sbrkr.c
00000000 l    df *ABS*	00000000 stdio.c
00000000 l    df *ABS*	00000000 writer.c
00000000 l    df *ABS*	00000000 closer.c
00000000 l    df *ABS*	00000000 fstatr.c
00000000 l    df *ABS*	00000000 isattyr.c
00000000 l    df *ABS*	00000000 lseekr.c
00000000 l    df *ABS*	00000000 memchr.c
00000000 l    df *ABS*	00000000 mlock.c
00000000 l    df *ABS*	00000000 readr.c
00000000 l    df *ABS*	00000000 libgcc2.c
00000000 l    df *ABS*	00000000 impure.c
90000000 l     O .data	00000060 impure_data
00000000 l    df *ABS*	00000000 
800028b8 l       .rodata	00000000 __fini_array_end
800028b8 l       .rodata	00000000 __fini_array_start
800028b8 l       .rodata	00000000 __init_array_end
800028b8 l       .rodata	00000000 __preinit_array_end
800028b8 l       .rodata	00000000 __init_array_start
800028b8 l       .rodata	00000000 __preinit_array_start
8000244c g     F .text	00000028 _isatty_r
8000126e g     F .text	000000da _puts_r
80002474 g     F .text	0000002c _lseek_r
80000c74 g     F .text	00000016 GPIO_interrupt_handler
80000a4a g     F .text	000000de PLIC_Register_IRQ
80001234 g     F .text	0000003a printf
90000860 g       .data	00000000 __global_pointer$
80002392 g     F .text	00000036 __sseek
800017ee g     F .text	00000066 __sinit
80001354 g     F .text	000000c0 __swbuf_r
800017aa g     F .text	00000044 __sfmoreglue
800024bc g     F .text	00000002 __malloc_unlock
800003b2 g     F .text	0000001c process_mode
80002422 g     F .text	0000002a _fstat_r
90000084 g     O .bss	00000004 errno
00000800 g       *ABS*	00000000 __stack_size
80000510 g     F .text	00000044 uart_write
800003ce g     F .text	00000016 process_stop
800028b8 g       .rodata	00000000 __rt_init_start
800028b8 g       .rodata	00000000 __fsymtab_end
800000bc g       .ilalign	00000000 _ilm_lma
800017a0 g     F .text	0000000a _cleanup_r
80001348 g     F .text	00000008 puts
800028b8 g       .rodata	00000000 __rt_init_end
90000064 g     O .data	00000004 SystemCoreClock
80001350 g     F .text	00000004 isatty
800000d8  w    F .text	00000040 _fstat
800006a0 g     F .text	00000024 get_cpu_freq
800022ec g     F .text	00000028 _sbrk_r
800024be g     F .text	0000002c _read_r
800028b8 g       .rodata	00000000 _eilm
9000f800 g       .stack	00000000 _heap_end
80000118  w    F .text	00000014 _isatty
90000078 g     O .data	00000004 _global_impure_ptr
800011d6 g     F .text	0000005e __libc_init_array
80000e36 g     F .text	00000360 .hidden __udivdi3
8000018c  w    F .text	00000078 _sbrk
80000c58 g     F .text	0000000e _init
800011a0 g     F .text	00000036 __libc_fini_array
800000bc g       .ilalign	00000000 _ilm
80000b28 g     F .text	0000011e _premain_init
800027c4 g     O .rodata	00000020 __sf_fake_stderr
80000882 g     F .text	00000106 core_trap_handler
80001c9a g     F .text	00000042 __sfputs_r
80000494 g     F .text	0000007c uart_init
800024a0 g     F .text	0000001a memchr
80001af8 g     F .text	000000a2 _free_r
90000088 g     O .bss	00000004 _global_atexit
90010000 g       .stack	00000000 _sp
80000000 g     F .init	00000000 _start
8000012c  w    F .text	0000001c _lseek
8000151a g     F .text	00000074 __register_exitproc
800023fa g     F .text	00000028 _close_r
80001414 g     F .text	00000106 __swsetup_r
80001854 g     F .text	00000098 __sfp
80002314 g     F .text	00000030 __sread
800024ba g     F .text	00000002 __malloc_lock
800016d4 g     F .text	00000064 _fflush_r
800027e4 g     O .rodata	00000020 __sf_fake_stdin
9000007c g       .bss	00000000 __bss_start
80001a50 g     F .text	000000a8 memset
80000c8a g     F .text	000001ac main
8000028c  w      .text	00000000 trap_entry
800023c8 g     F .text	00000006 __sclose
80001b9a g     F .text	000000d6 _malloc_r
800028b8 g       .rodata	00000000 __vsymtab_start
800006c4 g     F .text	00000020 SystemInit
80000c66 g     F .text	0000000e _fini
80001234 g     F .text	0000003a iprintf
800026c4 g     O .rodata	00000100 .hidden __clz_tab
80001196 g     F .text	0000000a atexit
800023ce g     F .text	0000002c _write_r
80001f70 g     F .text	0000010c _printf_common
90000074 g     O .data	00000004 _impure_ptr
8000158e g     F .text	00000146 __sflush_r
90000000 g       .dalign	00000000 _data
800028b8 g       .rodata	00000000 __vsymtab_end
80000598 g     F .text	00000108 measure_cpu_freq
800003e4 g     F .text	00000074 retrive_result
80001956 g     F .text	0000005c __swhatbuf_r
80000204  w    F .text	00000088 _write
9000007c g       .bss	00000000 _edata
80000c46 g     F .text	00000012 _postmain_fini
900001b8 g       .bss	00000000 _end
80000304 g     F .text	00000098 plainTextSend
800028b8 g       .lalign	00000000 _data_lma
80000554 g     F .text	00000044 uart_read
80002344 g     F .text	0000004e __swrite
80001cdc g     F .text	00000294 _vfiprintf_r
800018ec g     F .text	0000006a _fwalk_reent
8000039c g     F .text	00000016 process_enable
80002804 g     O .rodata	00000020 __sf_fake_stdout
800009f0 g     F .text	0000005a SystemBannerPrint
80000148  w    F .text	00000044 _read
800019b2 g     F .text	0000009e __smakebuf_r
8000207c g     F .text	00000270 _printf_i
90000090 g     O .bss	00000004 __malloc_sbrk_start
9000008c g     O .bss	00000004 __malloc_free_list
800028b8 g       .rodata	00000000 __fsymtab_start
80001cdc g     F .text	00000294 _vfprintf_r
80000850 g     F .text	00000032 Interrupt_Register_ExtIRQ
80000458 g     F .text	0000003c gpio_iof_config
800000bc  w    F .text	0000001c _close



Disassembly of section .init:

80000000 <_start>:
_start():
E:\nucleistudio_workspace\test_encry_decry\Debug/../hbird_sdk/SoC/hbirdv2/Common/Source/GCC/startup_hbirdv2.S:40
 * Reset Handler called on controller reset
 */
_start:
    /* ===== Startup Stage 1 ===== */
    /* Disable Global Interrupt */
    csrc CSR_MSTATUS, MSTATUS_MIE
80000000:	30047073          	csrci	mstatus,8
E:\nucleistudio_workspace\test_encry_decry\Debug/../hbird_sdk/SoC/hbirdv2/Common/Source/GCC/startup_hbirdv2.S:42
    /* Disable all interrupts controlled by CSR MIE */
    csrw CSR_MIE, 0x0
80000004:	30405073          	csrwi	mie,0
E:\nucleistudio_workspace\test_encry_decry\Debug/../hbird_sdk/SoC/hbirdv2/Common/Source/GCC/startup_hbirdv2.S:47

    /* Initialize GP and Stack Pointer SP */
    .option push
    .option norelax
    la gp, __global_pointer$
80000008:	10001197          	auipc	gp,0x10001
8000000c:	85818193          	addi	gp,gp,-1960 # 90000860 <__global_pointer$>
E:\nucleistudio_workspace\test_encry_decry\Debug/../hbird_sdk/SoC/hbirdv2/Common/Source/GCC/startup_hbirdv2.S:49
    .option pop
    la sp, _sp
80000010:	10010117          	auipc	sp,0x10010
80000014:	ff010113          	addi	sp,sp,-16 # 90010000 <_sp>
E:\nucleistudio_workspace\test_encry_decry\Debug/../hbird_sdk/SoC/hbirdv2/Common/Source/GCC/startup_hbirdv2.S:54

    /*
     * Set Trap Entry MTVEC to trap_entry
     */
    la t0, trap_entry
80000018:	00000297          	auipc	t0,0x0
8000001c:	27428293          	addi	t0,t0,628 # 8000028c <trap_entry>
E:\nucleistudio_workspace\test_encry_decry\Debug/../hbird_sdk/SoC/hbirdv2/Common/Source/GCC/startup_hbirdv2.S:55
    csrw CSR_MTVEC, t0
80000020:	30529073          	csrw	mtvec,t0
E:\nucleistudio_workspace\test_encry_decry\Debug/../hbird_sdk/SoC/hbirdv2/Common/Source/GCC/startup_hbirdv2.S:58

    /* Direct Mode: All exceptions set pc to BASE. */
    csrc CSR_MTVEC, 0x3
80000024:	3051f073          	csrci	mtvec,3
E:\nucleistudio_workspace\test_encry_decry\Debug/../hbird_sdk/SoC/hbirdv2/Common/Source/GCC/startup_hbirdv2.S:74
    /* ===== Startup Stage 3 ===== */
    /*
     * Load code section frm FLASH to ILM
     * when code LMA is different with VMA
     */
    la a0, _ilm_lma
80000028:	00000517          	auipc	a0,0x0
8000002c:	09450513          	addi	a0,a0,148 # 800000bc <_close>
E:\nucleistudio_workspace\test_encry_decry\Debug/../hbird_sdk/SoC/hbirdv2/Common/Source/GCC/startup_hbirdv2.S:75
    la a1, _ilm
80000030:	00000597          	auipc	a1,0x0
80000034:	08c58593          	addi	a1,a1,140 # 800000bc <_close>
E:\nucleistudio_workspace\test_encry_decry\Debug/../hbird_sdk/SoC/hbirdv2/Common/Source/GCC/startup_hbirdv2.S:77
    /* If the ILM phy-address same as the logic-address, then quit */
    beq a0, a1, 2f
80000038:	02b50063          	beq	a0,a1,80000058 <_start+0x58>
E:\nucleistudio_workspace\test_encry_decry\Debug/../hbird_sdk/SoC/hbirdv2/Common/Source/GCC/startup_hbirdv2.S:78
    la a2, _eilm
8000003c:	00003617          	auipc	a2,0x3
80000040:	87c60613          	addi	a2,a2,-1924 # 800028b8 <__fsymtab_end>
E:\nucleistudio_workspace\test_encry_decry\Debug/../hbird_sdk/SoC/hbirdv2/Common/Source/GCC/startup_hbirdv2.S:79
    bgeu a1, a2, 2f
80000044:	00c5fa63          	bgeu	a1,a2,80000058 <_start+0x58>
E:\nucleistudio_workspace\test_encry_decry\Debug/../hbird_sdk/SoC/hbirdv2/Common/Source/GCC/startup_hbirdv2.S:83

1:
    /* Load code section if necessary */
    lw t0, (a0)
80000048:	00052283          	lw	t0,0(a0)
E:\nucleistudio_workspace\test_encry_decry\Debug/../hbird_sdk/SoC/hbirdv2/Common/Source/GCC/startup_hbirdv2.S:84
    sw t0, (a1)
8000004c:	0055a023          	sw	t0,0(a1)
E:\nucleistudio_workspace\test_encry_decry\Debug/../hbird_sdk/SoC/hbirdv2/Common/Source/GCC/startup_hbirdv2.S:85
    addi a0, a0, 4
80000050:	0511                	addi	a0,a0,4
E:\nucleistudio_workspace\test_encry_decry\Debug/../hbird_sdk/SoC/hbirdv2/Common/Source/GCC/startup_hbirdv2.S:86
    addi a1, a1, 4
80000052:	0591                	addi	a1,a1,4
E:\nucleistudio_workspace\test_encry_decry\Debug/../hbird_sdk/SoC/hbirdv2/Common/Source/GCC/startup_hbirdv2.S:87
    bltu a1, a2, 1b
80000054:	fec5eae3          	bltu	a1,a2,80000048 <_start+0x48>
E:\nucleistudio_workspace\test_encry_decry\Debug/../hbird_sdk/SoC/hbirdv2/Common/Source/GCC/startup_hbirdv2.S:90
2:
    /* Load data section */
    la a0, _data_lma
80000058:	00003517          	auipc	a0,0x3
8000005c:	86050513          	addi	a0,a0,-1952 # 800028b8 <__fsymtab_end>
E:\nucleistudio_workspace\test_encry_decry\Debug/../hbird_sdk/SoC/hbirdv2/Common/Source/GCC/startup_hbirdv2.S:91
    la a1, _data
80000060:	10000597          	auipc	a1,0x10000
80000064:	fa058593          	addi	a1,a1,-96 # 90000000 <impure_data>
E:\nucleistudio_workspace\test_encry_decry\Debug/../hbird_sdk/SoC/hbirdv2/Common/Source/GCC/startup_hbirdv2.S:92
    la a2, _edata
80000068:	81c18613          	addi	a2,gp,-2020 # 9000007c <value0>
E:\nucleistudio_workspace\test_encry_decry\Debug/../hbird_sdk/SoC/hbirdv2/Common/Source/GCC/startup_hbirdv2.S:93
    bgeu a1, a2, 2f
8000006c:	00c5fa63          	bgeu	a1,a2,80000080 <_start+0x80>
E:\nucleistudio_workspace\test_encry_decry\Debug/../hbird_sdk/SoC/hbirdv2/Common/Source/GCC/startup_hbirdv2.S:95
1:
    lw t0, (a0)
80000070:	00052283          	lw	t0,0(a0)
E:\nucleistudio_workspace\test_encry_decry\Debug/../hbird_sdk/SoC/hbirdv2/Common/Source/GCC/startup_hbirdv2.S:96
    sw t0, (a1)
80000074:	0055a023          	sw	t0,0(a1)
E:\nucleistudio_workspace\test_encry_decry\Debug/../hbird_sdk/SoC/hbirdv2/Common/Source/GCC/startup_hbirdv2.S:97
    addi a0, a0, 4
80000078:	0511                	addi	a0,a0,4
E:\nucleistudio_workspace\test_encry_decry\Debug/../hbird_sdk/SoC/hbirdv2/Common/Source/GCC/startup_hbirdv2.S:98
    addi a1, a1, 4
8000007a:	0591                	addi	a1,a1,4
E:\nucleistudio_workspace\test_encry_decry\Debug/../hbird_sdk/SoC/hbirdv2/Common/Source/GCC/startup_hbirdv2.S:99
    bltu a1, a2, 1b
8000007c:	fec5eae3          	bltu	a1,a2,80000070 <_start+0x70>
E:\nucleistudio_workspace\test_encry_decry\Debug/../hbird_sdk/SoC/hbirdv2/Common/Source/GCC/startup_hbirdv2.S:102
2:
    /* Clear bss section */
    la a0, __bss_start
80000080:	81c18513          	addi	a0,gp,-2020 # 9000007c <value0>
E:\nucleistudio_workspace\test_encry_decry\Debug/../hbird_sdk/SoC/hbirdv2/Common/Source/GCC/startup_hbirdv2.S:103
    la a1, _end
80000084:	95818593          	addi	a1,gp,-1704 # 900001b8 <_end>
E:\nucleistudio_workspace\test_encry_decry\Debug/../hbird_sdk/SoC/hbirdv2/Common/Source/GCC/startup_hbirdv2.S:104
    bgeu a0, a1, 2f
80000088:	00b57763          	bgeu	a0,a1,80000096 <_start+0x96>
E:\nucleistudio_workspace\test_encry_decry\Debug/../hbird_sdk/SoC/hbirdv2/Common/Source/GCC/startup_hbirdv2.S:106
1:
    sw zero, (a0)
8000008c:	00052023          	sw	zero,0(a0)
E:\nucleistudio_workspace\test_encry_decry\Debug/../hbird_sdk/SoC/hbirdv2/Common/Source/GCC/startup_hbirdv2.S:107
    addi a0, a0, 4
80000090:	0511                	addi	a0,a0,4
E:\nucleistudio_workspace\test_encry_decry\Debug/../hbird_sdk/SoC/hbirdv2/Common/Source/GCC/startup_hbirdv2.S:108
    bltu a0, a1, 1b
80000092:	feb56de3          	bltu	a0,a1,8000008c <_start+0x8c>
E:\nucleistudio_workspace\test_encry_decry\Debug/../hbird_sdk/SoC/hbirdv2/Common/Source/GCC/startup_hbirdv2.S:115

    /*
     * Call vendor defined SystemInit to
     * initialize the micro-controller system
     */
    call SystemInit
80000096:	253d                	jal	800006c4 <SystemInit>
E:\nucleistudio_workspace\test_encry_decry\Debug/../hbird_sdk/SoC/hbirdv2/Common/Source/GCC/startup_hbirdv2.S:118

    /* Call global constructors */
    la a0, __libc_fini_array
80000098:	00001517          	auipc	a0,0x1
8000009c:	10850513          	addi	a0,a0,264 # 800011a0 <__libc_fini_array>
E:\nucleistudio_workspace\test_encry_decry\Debug/../hbird_sdk/SoC/hbirdv2/Common/Source/GCC/startup_hbirdv2.S:119
    call atexit
800000a0:	0f6010ef          	jal	ra,80001196 <atexit>
E:\nucleistudio_workspace\test_encry_decry\Debug/../hbird_sdk/SoC/hbirdv2/Common/Source/GCC/startup_hbirdv2.S:121
    /* Call C/C++ constructor start up code */
    call __libc_init_array
800000a4:	132010ef          	jal	ra,800011d6 <__libc_init_array>
E:\nucleistudio_workspace\test_encry_decry\Debug/../hbird_sdk/SoC/hbirdv2/Common/Source/GCC/startup_hbirdv2.S:124

    /* do pre-init steps before main */
    call _premain_init
800000a8:	281000ef          	jal	ra,80000b28 <_premain_init>
E:\nucleistudio_workspace\test_encry_decry\Debug/../hbird_sdk/SoC/hbirdv2/Common/Source/GCC/startup_hbirdv2.S:127
    /* ===== Call Main Function  ===== */
    /* argc = argv = 0 */
    li a0, 0
800000ac:	4501                	li	a0,0
E:\nucleistudio_workspace\test_encry_decry\Debug/../hbird_sdk/SoC/hbirdv2/Common/Source/GCC/startup_hbirdv2.S:128
    li a1, 0
800000ae:	4581                	li	a1,0
E:\nucleistudio_workspace\test_encry_decry\Debug/../hbird_sdk/SoC/hbirdv2/Common/Source/GCC/startup_hbirdv2.S:134

#ifdef RTOS_RTTHREAD
    // Call entry function when using RT-Thread
    call entry
#else
    call main
800000b0:	3db000ef          	jal	ra,80000c8a <main>
E:\nucleistudio_workspace\test_encry_decry\Debug/../hbird_sdk/SoC/hbirdv2/Common/Source/GCC/startup_hbirdv2.S:137
#endif
    /* do post-main steps after main */
    call _postmain_fini
800000b4:	393000ef          	jal	ra,80000c46 <_postmain_fini>
E:\nucleistudio_workspace\test_encry_decry\Debug/../hbird_sdk/SoC/hbirdv2/Common/Source/GCC/startup_hbirdv2.S:140

1:
    j 1b
800000b8:	a001                	j	800000b8 <_start+0xb8>

Disassembly of section .text:

800000bc <_close>:
_close():
E:\nucleistudio_workspace\test_encry_decry\Debug/../hbird_sdk/SoC/hbirdv2/Common/Source/Stubs/close.c:9

#undef errno
extern int errno;

__WEAK int _close(int fd)
{
800000bc:	1101                	addi	sp,sp,-32
800000be:	ce22                	sw	s0,28(sp)
800000c0:	1000                	addi	s0,sp,32
800000c2:	fea42623          	sw	a0,-20(s0)
E:\nucleistudio_workspace\test_encry_decry\Debug/../hbird_sdk/SoC/hbirdv2/Common/Source/Stubs/close.c:10
    errno = EBADF;
800000c6:	82418793          	addi	a5,gp,-2012 # 90000084 <errno>
800000ca:	4725                	li	a4,9
800000cc:	c398                	sw	a4,0(a5)
E:\nucleistudio_workspace\test_encry_decry\Debug/../hbird_sdk/SoC/hbirdv2/Common/Source/Stubs/close.c:11
    return -1;
800000ce:	57fd                	li	a5,-1
E:\nucleistudio_workspace\test_encry_decry\Debug/../hbird_sdk/SoC/hbirdv2/Common/Source/Stubs/close.c:12
}
800000d0:	853e                	mv	a0,a5
800000d2:	4472                	lw	s0,28(sp)
800000d4:	6105                	addi	sp,sp,32
800000d6:	8082                	ret

800000d8 <_fstat>:
_fstat():
E:\nucleistudio_workspace\test_encry_decry\Debug/../hbird_sdk/SoC/hbirdv2/Common/Source/Stubs/fstat.c:11

#undef errno
extern int errno;

__WEAK int _fstat(int file, struct stat *st)
{
800000d8:	1101                	addi	sp,sp,-32
800000da:	ce22                	sw	s0,28(sp)
800000dc:	1000                	addi	s0,sp,32
800000de:	fea42623          	sw	a0,-20(s0)
800000e2:	feb42423          	sw	a1,-24(s0)
E:\nucleistudio_workspace\test_encry_decry\Debug/../hbird_sdk/SoC/hbirdv2/Common/Source/Stubs/fstat.c:12
    if ((STDOUT_FILENO == file) || (STDERR_FILENO == file)) {
800000e6:	fec42703          	lw	a4,-20(s0)
800000ea:	4785                	li	a5,1
800000ec:	00f70763          	beq	a4,a5,800000fa <_fstat+0x22>
E:\nucleistudio_workspace\test_encry_decry\Debug/../hbird_sdk/SoC/hbirdv2/Common/Source/Stubs/fstat.c:12 (discriminator 1)
800000f0:	fec42703          	lw	a4,-20(s0)
800000f4:	4789                	li	a5,2
800000f6:	00f71863          	bne	a4,a5,80000106 <_fstat+0x2e>
E:\nucleistudio_workspace\test_encry_decry\Debug/../hbird_sdk/SoC/hbirdv2/Common/Source/Stubs/fstat.c:13
        st->st_mode = S_IFCHR;
800000fa:	fe842783          	lw	a5,-24(s0)
800000fe:	6709                	lui	a4,0x2
80000100:	c3d8                	sw	a4,4(a5)
E:\nucleistudio_workspace\test_encry_decry\Debug/../hbird_sdk/SoC/hbirdv2/Common/Source/Stubs/fstat.c:14
        return 0;
80000102:	4781                	li	a5,0
80000104:	a031                	j	80000110 <_fstat+0x38>
E:\nucleistudio_workspace\test_encry_decry\Debug/../hbird_sdk/SoC/hbirdv2/Common/Source/Stubs/fstat.c:16
    } else {
        errno = EBADF;
80000106:	82418793          	addi	a5,gp,-2012 # 90000084 <errno>
8000010a:	4725                	li	a4,9
8000010c:	c398                	sw	a4,0(a5)
E:\nucleistudio_workspace\test_encry_decry\Debug/../hbird_sdk/SoC/hbirdv2/Common/Source/Stubs/fstat.c:17
        return -1;
8000010e:	57fd                	li	a5,-1
E:\nucleistudio_workspace\test_encry_decry\Debug/../hbird_sdk/SoC/hbirdv2/Common/Source/Stubs/fstat.c:19
    }
}
80000110:	853e                	mv	a0,a5
80000112:	4472                	lw	s0,28(sp)
80000114:	6105                	addi	sp,sp,32
80000116:	8082                	ret

80000118 <_isatty>:
_isatty():
E:\nucleistudio_workspace\test_encry_decry\Debug/../hbird_sdk/SoC/hbirdv2/Common/Source/Stubs/isatty.c:6
/* See LICENSE of license details. */
#include "hbird_sdk_soc.h"
#include <unistd.h>

__WEAK int _isatty(int fd)
{
80000118:	1101                	addi	sp,sp,-32
8000011a:	ce22                	sw	s0,28(sp)
8000011c:	1000                	addi	s0,sp,32
8000011e:	fea42623          	sw	a0,-20(s0)
E:\nucleistudio_workspace\test_encry_decry\Debug/../hbird_sdk/SoC/hbirdv2/Common/Source/Stubs/isatty.c:7
    return 1;
80000122:	4785                	li	a5,1
E:\nucleistudio_workspace\test_encry_decry\Debug/../hbird_sdk/SoC/hbirdv2/Common/Source/Stubs/isatty.c:8
}
80000124:	853e                	mv	a0,a5
80000126:	4472                	lw	s0,28(sp)
80000128:	6105                	addi	sp,sp,32
8000012a:	8082                	ret

8000012c <_lseek>:
_lseek():
E:\nucleistudio_workspace\test_encry_decry\Debug/../hbird_sdk/SoC/hbirdv2/Common/Source/Stubs/lseek.c:9

#undef errno
extern int errno;

__WEAK int _lseek(int file, int offset, int whence)
{
8000012c:	1101                	addi	sp,sp,-32
8000012e:	ce22                	sw	s0,28(sp)
80000130:	1000                	addi	s0,sp,32
80000132:	fea42623          	sw	a0,-20(s0)
80000136:	feb42423          	sw	a1,-24(s0)
8000013a:	fec42223          	sw	a2,-28(s0)
E:\nucleistudio_workspace\test_encry_decry\Debug/../hbird_sdk/SoC/hbirdv2/Common/Source/Stubs/lseek.c:10
    return 0;
8000013e:	4781                	li	a5,0
E:\nucleistudio_workspace\test_encry_decry\Debug/../hbird_sdk/SoC/hbirdv2/Common/Source/Stubs/lseek.c:11
}
80000140:	853e                	mv	a0,a5
80000142:	4472                	lw	s0,28(sp)
80000144:	6105                	addi	sp,sp,32
80000146:	8082                	ret

80000148 <_read>:
_read():
E:\nucleistudio_workspace\test_encry_decry\Debug/../hbird_sdk/SoC/hbirdv2/Common/Source/Stubs/read.c:11
#include "hbird_sdk_hal.h"

// #define UART_AUTO_ECHO

__WEAK ssize_t _read(int fd, void* ptr, size_t len)
{
80000148:	7179                	addi	sp,sp,-48
8000014a:	d606                	sw	ra,44(sp)
8000014c:	d422                	sw	s0,40(sp)
8000014e:	1800                	addi	s0,sp,48
80000150:	fca42e23          	sw	a0,-36(s0)
80000154:	fcb42c23          	sw	a1,-40(s0)
80000158:	fcc42a23          	sw	a2,-44(s0)
E:\nucleistudio_workspace\test_encry_decry\Debug/../hbird_sdk/SoC/hbirdv2/Common/Source/Stubs/read.c:12
    if (fd != STDIN_FILENO) {
8000015c:	fdc42783          	lw	a5,-36(s0)
80000160:	c399                	beqz	a5,80000166 <_read+0x1e>
E:\nucleistudio_workspace\test_encry_decry\Debug/../hbird_sdk/SoC/hbirdv2/Common/Source/Stubs/read.c:13
        return -1;
80000162:	57fd                	li	a5,-1
80000164:	a839                	j	80000182 <_read+0x3a>
E:\nucleistudio_workspace\test_encry_decry\Debug/../hbird_sdk/SoC/hbirdv2/Common/Source/Stubs/read.c:16
    }

    uint8_t *readbuf = (uint8_t *)ptr;
80000166:	fd842783          	lw	a5,-40(s0)
8000016a:	fef42623          	sw	a5,-20(s0)
E:\nucleistudio_workspace\test_encry_decry\Debug/../hbird_sdk/SoC/hbirdv2/Common/Source/Stubs/read.c:17
    readbuf[0] = uart_read(SOC_DEBUG_UART);
8000016e:	10013537          	lui	a0,0x10013
80000172:	26cd                	jal	80000554 <uart_read>
80000174:	87aa                	mv	a5,a0
80000176:	873e                	mv	a4,a5
80000178:	fec42783          	lw	a5,-20(s0)
8000017c:	00e78023          	sb	a4,0(a5)
E:\nucleistudio_workspace\test_encry_decry\Debug/../hbird_sdk/SoC/hbirdv2/Common/Source/Stubs/read.c:21
#ifdef UART_AUTO_ECHO
    uart_write(SOC_DEBUG_UART, readbuf[0]);
#endif
    return 1;
80000180:	4785                	li	a5,1
E:\nucleistudio_workspace\test_encry_decry\Debug/../hbird_sdk/SoC/hbirdv2/Common/Source/Stubs/read.c:22
}
80000182:	853e                	mv	a0,a5
80000184:	50b2                	lw	ra,44(sp)
80000186:	5422                	lw	s0,40(sp)
80000188:	6145                	addi	sp,sp,48
8000018a:	8082                	ret

8000018c <_sbrk>:
_sbrk():
E:\nucleistudio_workspace\test_encry_decry\Debug/../hbird_sdk/SoC/hbirdv2/Common/Source/Stubs/sbrk.c:8
#include <stdint.h>
#include <stddef.h>
#include <unistd.h>

__WEAK void *_sbrk(ptrdiff_t incr)
{
8000018c:	1101                	addi	sp,sp,-32
8000018e:	ce22                	sw	s0,28(sp)
80000190:	1000                	addi	s0,sp,32
80000192:	fea42623          	sw	a0,-20(s0)
E:\nucleistudio_workspace\test_encry_decry\Debug/../hbird_sdk/SoC/hbirdv2/Common/Source/Stubs/sbrk.c:13
    extern char _end[];
    extern char _heap_end[];
    static char *curbrk = _end;

    if ((curbrk + incr < _end) || (curbrk + incr > _heap_end)) {
80000196:	10000797          	auipc	a5,0x10000
8000019a:	eca78793          	addi	a5,a5,-310 # 90000060 <curbrk.0>
8000019e:	4398                	lw	a4,0(a5)
800001a0:	fec42783          	lw	a5,-20(s0)
800001a4:	973e                	add	a4,a4,a5
800001a6:	95818793          	addi	a5,gp,-1704 # 900001b8 <_end>
800001aa:	02f76063          	bltu	a4,a5,800001ca <_sbrk+0x3e>
E:\nucleistudio_workspace\test_encry_decry\Debug/../hbird_sdk/SoC/hbirdv2/Common/Source/Stubs/sbrk.c:13 (discriminator 1)
800001ae:	10000797          	auipc	a5,0x10000
800001b2:	eb278793          	addi	a5,a5,-334 # 90000060 <curbrk.0>
800001b6:	4398                	lw	a4,0(a5)
800001b8:	fec42783          	lw	a5,-20(s0)
800001bc:	973e                	add	a4,a4,a5
800001be:	1000f797          	auipc	a5,0x1000f
800001c2:	64278793          	addi	a5,a5,1602 # 9000f800 <_heap_end>
800001c6:	00e7f463          	bgeu	a5,a4,800001ce <_sbrk+0x42>
E:\nucleistudio_workspace\test_encry_decry\Debug/../hbird_sdk/SoC/hbirdv2/Common/Source/Stubs/sbrk.c:14
        return (void *)(-1);
800001ca:	57fd                	li	a5,-1
800001cc:	a805                	j	800001fc <_sbrk+0x70>
E:\nucleistudio_workspace\test_encry_decry\Debug/../hbird_sdk/SoC/hbirdv2/Common/Source/Stubs/sbrk.c:17
    }

    curbrk += incr;
800001ce:	10000797          	auipc	a5,0x10000
800001d2:	e9278793          	addi	a5,a5,-366 # 90000060 <curbrk.0>
800001d6:	4398                	lw	a4,0(a5)
800001d8:	fec42783          	lw	a5,-20(s0)
800001dc:	973e                	add	a4,a4,a5
800001de:	10000797          	auipc	a5,0x10000
800001e2:	e8278793          	addi	a5,a5,-382 # 90000060 <curbrk.0>
800001e6:	c398                	sw	a4,0(a5)
E:\nucleistudio_workspace\test_encry_decry\Debug/../hbird_sdk/SoC/hbirdv2/Common/Source/Stubs/sbrk.c:18
    return (void *)(curbrk - incr);
800001e8:	10000797          	auipc	a5,0x10000
800001ec:	e7878793          	addi	a5,a5,-392 # 90000060 <curbrk.0>
800001f0:	4398                	lw	a4,0(a5)
800001f2:	fec42783          	lw	a5,-20(s0)
800001f6:	40f007b3          	neg	a5,a5
800001fa:	97ba                	add	a5,a5,a4
E:\nucleistudio_workspace\test_encry_decry\Debug/../hbird_sdk/SoC/hbirdv2/Common/Source/Stubs/sbrk.c:19
}
800001fc:	853e                	mv	a0,a5
800001fe:	4472                	lw	s0,28(sp)
80000200:	6105                	addi	sp,sp,32
80000202:	8082                	ret

80000204 <_write>:
_write():
E:\nucleistudio_workspace\test_encry_decry\Debug/../hbird_sdk/SoC/hbirdv2/Common/Source/Stubs/write.c:9
#include <unistd.h>
#include <sys/types.h>
#include <hbird_sdk_hal.h>

__WEAK ssize_t _write(int fd, const void* ptr, size_t len)
{
80000204:	7179                	addi	sp,sp,-48
80000206:	d606                	sw	ra,44(sp)
80000208:	d422                	sw	s0,40(sp)
8000020a:	1800                	addi	s0,sp,48
8000020c:	fca42e23          	sw	a0,-36(s0)
80000210:	fcb42c23          	sw	a1,-40(s0)
80000214:	fcc42a23          	sw	a2,-44(s0)
E:\nucleistudio_workspace\test_encry_decry\Debug/../hbird_sdk/SoC/hbirdv2/Common/Source/Stubs/write.c:10
    if (!isatty(fd)) {
80000218:	fdc42503          	lw	a0,-36(s0)
8000021c:	134010ef          	jal	ra,80001350 <isatty>
80000220:	87aa                	mv	a5,a0
80000222:	e399                	bnez	a5,80000228 <_write+0x24>
E:\nucleistudio_workspace\test_encry_decry\Debug/../hbird_sdk/SoC/hbirdv2/Common/Source/Stubs/write.c:11
        return -1;
80000224:	57fd                	li	a5,-1
80000226:	a8b1                	j	80000282 <_write+0x7e>
E:\nucleistudio_workspace\test_encry_decry\Debug/../hbird_sdk/SoC/hbirdv2/Common/Source/Stubs/write.c:14
    }

    const uint8_t *writebuf = (const uint8_t *)ptr;
80000228:	fd842783          	lw	a5,-40(s0)
8000022c:	fef42423          	sw	a5,-24(s0)
E:\nucleistudio_workspace\test_encry_decry\Debug/../hbird_sdk/SoC/hbirdv2/Common/Source/Stubs/write.c:15
    for (size_t i = 0; i < len; i++) {
80000230:	fe042623          	sw	zero,-20(s0)
80000234:	a83d                	j	80000272 <_write+0x6e>
E:\nucleistudio_workspace\test_encry_decry\Debug/../hbird_sdk/SoC/hbirdv2/Common/Source/Stubs/write.c:16
        if (writebuf[i] == '\n') {
80000236:	fe842703          	lw	a4,-24(s0)
8000023a:	fec42783          	lw	a5,-20(s0)
8000023e:	97ba                	add	a5,a5,a4
80000240:	0007c703          	lbu	a4,0(a5)
80000244:	47a9                	li	a5,10
80000246:	00f71663          	bne	a4,a5,80000252 <_write+0x4e>
E:\nucleistudio_workspace\test_encry_decry\Debug/../hbird_sdk/SoC/hbirdv2/Common/Source/Stubs/write.c:17
            uart_write(SOC_DEBUG_UART, '\r');
8000024a:	45b5                	li	a1,13
8000024c:	10013537          	lui	a0,0x10013
80000250:	24c1                	jal	80000510 <uart_write>
E:\nucleistudio_workspace\test_encry_decry\Debug/../hbird_sdk/SoC/hbirdv2/Common/Source/Stubs/write.c:19 (discriminator 2)
        }
        uart_write(SOC_DEBUG_UART, writebuf[i]);
80000252:	fe842703          	lw	a4,-24(s0)
80000256:	fec42783          	lw	a5,-20(s0)
8000025a:	97ba                	add	a5,a5,a4
8000025c:	0007c783          	lbu	a5,0(a5)
80000260:	85be                	mv	a1,a5
80000262:	10013537          	lui	a0,0x10013
80000266:	246d                	jal	80000510 <uart_write>
E:\nucleistudio_workspace\test_encry_decry\Debug/../hbird_sdk/SoC/hbirdv2/Common/Source/Stubs/write.c:15 (discriminator 2)
    for (size_t i = 0; i < len; i++) {
80000268:	fec42783          	lw	a5,-20(s0)
8000026c:	0785                	addi	a5,a5,1
8000026e:	fef42623          	sw	a5,-20(s0)
E:\nucleistudio_workspace\test_encry_decry\Debug/../hbird_sdk/SoC/hbirdv2/Common/Source/Stubs/write.c:15 (discriminator 1)
80000272:	fec42703          	lw	a4,-20(s0)
80000276:	fd442783          	lw	a5,-44(s0)
8000027a:	faf76ee3          	bltu	a4,a5,80000236 <_write+0x32>
E:\nucleistudio_workspace\test_encry_decry\Debug/../hbird_sdk/SoC/hbirdv2/Common/Source/Stubs/write.c:21
    }
    return len;
8000027e:	fd442783          	lw	a5,-44(s0)
E:\nucleistudio_workspace\test_encry_decry\Debug/../hbird_sdk/SoC/hbirdv2/Common/Source/Stubs/write.c:22
}
80000282:	853e                	mv	a0,a5
80000284:	50b2                	lw	ra,44(sp)
80000286:	5422                	lw	s0,40(sp)
80000288:	6145                	addi	sp,sp,48
8000028a:	8082                	ret

8000028c <trap_entry>:
trap_entry():
E:\nucleistudio_workspace\test_encry_decry\Debug/../hbird_sdk/SoC/hbirdv2/Common/Source/GCC/intexc_hbirdv2.S:159
.align 2
.global trap_entry
.weak trap_entry
trap_entry:
    /* Save the caller saving registers (context) */
    SAVE_CONTEXT
8000028c:	715d                	addi	sp,sp,-80
8000028e:	c006                	sw	ra,0(sp)
80000290:	c212                	sw	tp,4(sp)
80000292:	c416                	sw	t0,8(sp)
80000294:	c61a                	sw	t1,12(sp)
80000296:	c81e                	sw	t2,16(sp)
80000298:	ca2a                	sw	a0,20(sp)
8000029a:	cc2e                	sw	a1,24(sp)
8000029c:	ce32                	sw	a2,28(sp)
8000029e:	d036                	sw	a3,32(sp)
800002a0:	d23a                	sw	a4,36(sp)
800002a2:	d43e                	sw	a5,40(sp)
800002a4:	dc42                	sw	a6,56(sp)
800002a6:	de46                	sw	a7,60(sp)
800002a8:	c0f2                	sw	t3,64(sp)
800002aa:	c2f6                	sw	t4,68(sp)
800002ac:	c4fa                	sw	t5,72(sp)
800002ae:	c6fe                	sw	t6,76(sp)
E:\nucleistudio_workspace\test_encry_decry\Debug/../hbird_sdk/SoC/hbirdv2/Common/Source/GCC/intexc_hbirdv2.S:161
    /* Save the necessary CSR registers */
    SAVE_CSR_CONTEXT
800002b0:	341022f3          	csrr	t0,mepc
800002b4:	d616                	sw	t0,44(sp)
800002b6:	342022f3          	csrr	t0,mcause
800002ba:	d816                	sw	t0,48(sp)
800002bc:	300022f3          	csrr	t0,mstatus
800002c0:	da16                	sw	t0,52(sp)
E:\nucleistudio_workspace\test_encry_decry\Debug/../hbird_sdk/SoC/hbirdv2/Common/Source/GCC/intexc_hbirdv2.S:168
    /*
     * Set the exception handler function arguments
     * argument 1: mcause value
     * argument 2: current stack point(SP) value
     */
    csrr a0, mcause
800002c2:	34202573          	csrr	a0,mcause
E:\nucleistudio_workspace\test_encry_decry\Debug/../hbird_sdk/SoC/hbirdv2/Common/Source/GCC/intexc_hbirdv2.S:169
    mv a1, sp
800002c6:	858a                	mv	a1,sp
E:\nucleistudio_workspace\test_encry_decry\Debug/../hbird_sdk/SoC/hbirdv2/Common/Source/GCC/intexc_hbirdv2.S:175
    /*
     * TODO: Call the trap handler function
     * By default, the function template is provided in
     * system_Device.c, you can adjust it as you want
     */
    call core_trap_handler
800002c8:	2b6d                	jal	80000882 <core_trap_handler>
E:\nucleistudio_workspace\test_encry_decry\Debug/../hbird_sdk/SoC/hbirdv2/Common/Source/GCC/intexc_hbirdv2.S:178

    /* Restore the necessary CSR registers */
    RESTORE_CSR_CONTEXT
800002ca:	52b2                	lw	t0,44(sp)
800002cc:	34129073          	csrw	mepc,t0
800002d0:	52c2                	lw	t0,48(sp)
800002d2:	34229073          	csrw	mcause,t0
800002d6:	52d2                	lw	t0,52(sp)
800002d8:	30029073          	csrw	mstatus,t0
E:\nucleistudio_workspace\test_encry_decry\Debug/../hbird_sdk/SoC/hbirdv2/Common/Source/GCC/intexc_hbirdv2.S:180
    /* Restore the caller saving registers (context) */
    RESTORE_CONTEXT
800002dc:	4082                	lw	ra,0(sp)
800002de:	4212                	lw	tp,4(sp)
800002e0:	42a2                	lw	t0,8(sp)
800002e2:	4332                	lw	t1,12(sp)
800002e4:	43c2                	lw	t2,16(sp)
800002e6:	4552                	lw	a0,20(sp)
800002e8:	45e2                	lw	a1,24(sp)
800002ea:	4672                	lw	a2,28(sp)
800002ec:	5682                	lw	a3,32(sp)
800002ee:	5712                	lw	a4,36(sp)
800002f0:	57a2                	lw	a5,40(sp)
800002f2:	5862                	lw	a6,56(sp)
800002f4:	58f2                	lw	a7,60(sp)
800002f6:	4e06                	lw	t3,64(sp)
800002f8:	4e96                	lw	t4,68(sp)
800002fa:	4f26                	lw	t5,72(sp)
800002fc:	4fb6                	lw	t6,76(sp)
800002fe:	6161                	addi	sp,sp,80
E:\nucleistudio_workspace\test_encry_decry\Debug/../hbird_sdk/SoC/hbirdv2/Common/Source/GCC/intexc_hbirdv2.S:183

    /* Return to regular code */
    mret
80000300:	30200073          	mret

80000304 <plainTextSend>:
plainTextSend():
E:\nucleistudio_workspace\test_encry_decry\Debug/../hbird_sdk/SoC/hbirdv2/Common/Source/Drivers/des_aes.c:4
#include "des_aes.h"
#include "hbirdv2.h"

void plainTextSend(uint32_t text, uint32_t key, uint32_t round){
80000304:	1101                	addi	sp,sp,-32
80000306:	ce22                	sw	s0,28(sp)
80000308:	1000                	addi	s0,sp,32
8000030a:	fea42623          	sw	a0,-20(s0)
8000030e:	feb42423          	sw	a1,-24(s0)
80000312:	fec42223          	sw	a2,-28(s0)
E:\nucleistudio_workspace\test_encry_decry\Debug/../hbird_sdk/SoC/hbirdv2/Common/Source/Drivers/des_aes.c:5
	 if (round == FirstRound) {
80000316:	fe442703          	lw	a4,-28(s0)
8000031a:	4785                	li	a5,1
8000031c:	00f71d63          	bne	a4,a5,80000336 <plainTextSend+0x32>
E:\nucleistudio_workspace\test_encry_decry\Debug/../hbird_sdk/SoC/hbirdv2/Common/Source/Drivers/des_aes.c:6
		 DES_AES->REG_TEXT0 = text;
80000320:	100507b7          	lui	a5,0x10050
80000324:	fec42703          	lw	a4,-20(s0)
80000328:	c398                	sw	a4,0(a5)
E:\nucleistudio_workspace\test_encry_decry\Debug/../hbird_sdk/SoC/hbirdv2/Common/Source/Drivers/des_aes.c:7
		 DES_AES->REG_KEY0 = key;
8000032a:	100507b7          	lui	a5,0x10050
8000032e:	fe842703          	lw	a4,-24(s0)
80000332:	cb98                	sw	a4,16(a5)
E:\nucleistudio_workspace\test_encry_decry\Debug/../hbird_sdk/SoC/hbirdv2/Common/Source/Drivers/des_aes.c:18
		 DES_AES->REG_KEY2 = key;
	 } else if (round == ForthRound) {
		 DES_AES->REG_TEXT3 = text;
		 DES_AES->REG_KEY3 = key;
	 }
 }
80000334:	a085                	j	80000394 <plainTextSend+0x90>
E:\nucleistudio_workspace\test_encry_decry\Debug/../hbird_sdk/SoC/hbirdv2/Common/Source/Drivers/des_aes.c:8
	 } else if (round == SecondRound) {
80000336:	fe442703          	lw	a4,-28(s0)
8000033a:	4789                	li	a5,2
8000033c:	00f71d63          	bne	a4,a5,80000356 <plainTextSend+0x52>
E:\nucleistudio_workspace\test_encry_decry\Debug/../hbird_sdk/SoC/hbirdv2/Common/Source/Drivers/des_aes.c:9
		 DES_AES->REG_TEXT1 = text;
80000340:	100507b7          	lui	a5,0x10050
80000344:	fec42703          	lw	a4,-20(s0)
80000348:	c3d8                	sw	a4,4(a5)
E:\nucleistudio_workspace\test_encry_decry\Debug/../hbird_sdk/SoC/hbirdv2/Common/Source/Drivers/des_aes.c:10
		 DES_AES->REG_KEY1 = key;
8000034a:	100507b7          	lui	a5,0x10050
8000034e:	fe842703          	lw	a4,-24(s0)
80000352:	cbd8                	sw	a4,20(a5)
E:\nucleistudio_workspace\test_encry_decry\Debug/../hbird_sdk/SoC/hbirdv2/Common/Source/Drivers/des_aes.c:18
 }
80000354:	a081                	j	80000394 <plainTextSend+0x90>
E:\nucleistudio_workspace\test_encry_decry\Debug/../hbird_sdk/SoC/hbirdv2/Common/Source/Drivers/des_aes.c:11
	 } else if (round == ThirdRound) {
80000356:	fe442703          	lw	a4,-28(s0)
8000035a:	478d                	li	a5,3
8000035c:	00f71d63          	bne	a4,a5,80000376 <plainTextSend+0x72>
E:\nucleistudio_workspace\test_encry_decry\Debug/../hbird_sdk/SoC/hbirdv2/Common/Source/Drivers/des_aes.c:12
		 DES_AES->REG_TEXT2 = text;
80000360:	100507b7          	lui	a5,0x10050
80000364:	fec42703          	lw	a4,-20(s0)
80000368:	c798                	sw	a4,8(a5)
E:\nucleistudio_workspace\test_encry_decry\Debug/../hbird_sdk/SoC/hbirdv2/Common/Source/Drivers/des_aes.c:13
		 DES_AES->REG_KEY2 = key;
8000036a:	100507b7          	lui	a5,0x10050
8000036e:	fe842703          	lw	a4,-24(s0)
80000372:	cf98                	sw	a4,24(a5)
E:\nucleistudio_workspace\test_encry_decry\Debug/../hbird_sdk/SoC/hbirdv2/Common/Source/Drivers/des_aes.c:18
 }
80000374:	a005                	j	80000394 <plainTextSend+0x90>
E:\nucleistudio_workspace\test_encry_decry\Debug/../hbird_sdk/SoC/hbirdv2/Common/Source/Drivers/des_aes.c:14
	 } else if (round == ForthRound) {
80000376:	fe442703          	lw	a4,-28(s0)
8000037a:	4791                	li	a5,4
8000037c:	00f71c63          	bne	a4,a5,80000394 <plainTextSend+0x90>
E:\nucleistudio_workspace\test_encry_decry\Debug/../hbird_sdk/SoC/hbirdv2/Common/Source/Drivers/des_aes.c:15
		 DES_AES->REG_TEXT3 = text;
80000380:	100507b7          	lui	a5,0x10050
80000384:	fec42703          	lw	a4,-20(s0)
80000388:	c7d8                	sw	a4,12(a5)
E:\nucleistudio_workspace\test_encry_decry\Debug/../hbird_sdk/SoC/hbirdv2/Common/Source/Drivers/des_aes.c:16
		 DES_AES->REG_KEY3 = key;
8000038a:	100507b7          	lui	a5,0x10050
8000038e:	fe842703          	lw	a4,-24(s0)
80000392:	cfd8                	sw	a4,28(a5)
E:\nucleistudio_workspace\test_encry_decry\Debug/../hbird_sdk/SoC/hbirdv2/Common/Source/Drivers/des_aes.c:18
 }
80000394:	0001                	nop
80000396:	4472                	lw	s0,28(sp)
80000398:	6105                	addi	sp,sp,32
8000039a:	8082                	ret

8000039c <process_enable>:
process_enable():
E:\nucleistudio_workspace\test_encry_decry\Debug/../hbird_sdk/SoC/hbirdv2/Common/Source/Drivers/des_aes.c:20

void process_enable(){
8000039c:	1141                	addi	sp,sp,-16
8000039e:	c622                	sw	s0,12(sp)
800003a0:	0800                	addi	s0,sp,16
E:\nucleistudio_workspace\test_encry_decry\Debug/../hbird_sdk/SoC/hbirdv2/Common/Source/Drivers/des_aes.c:21
	DES_AES->REG_ENABLE = 0x00000001;
800003a2:	100507b7          	lui	a5,0x10050
800003a6:	4705                	li	a4,1
800003a8:	d398                	sw	a4,32(a5)
E:\nucleistudio_workspace\test_encry_decry\Debug/../hbird_sdk/SoC/hbirdv2/Common/Source/Drivers/des_aes.c:22
}
800003aa:	0001                	nop
800003ac:	4432                	lw	s0,12(sp)
800003ae:	0141                	addi	sp,sp,16
800003b0:	8082                	ret

800003b2 <process_mode>:
process_mode():
E:\nucleistudio_workspace\test_encry_decry\Debug/../hbird_sdk/SoC/hbirdv2/Common/Source/Drivers/des_aes.c:23
void process_mode(uint32_t value){
800003b2:	1101                	addi	sp,sp,-32
800003b4:	ce22                	sw	s0,28(sp)
800003b6:	1000                	addi	s0,sp,32
800003b8:	fea42623          	sw	a0,-20(s0)
E:\nucleistudio_workspace\test_encry_decry\Debug/../hbird_sdk/SoC/hbirdv2/Common/Source/Drivers/des_aes.c:24
	DES_AES->REG_MODE = value;
800003bc:	100507b7          	lui	a5,0x10050
800003c0:	fec42703          	lw	a4,-20(s0)
800003c4:	d3d8                	sw	a4,36(a5)
E:\nucleistudio_workspace\test_encry_decry\Debug/../hbird_sdk/SoC/hbirdv2/Common/Source/Drivers/des_aes.c:25
}
800003c6:	0001                	nop
800003c8:	4472                	lw	s0,28(sp)
800003ca:	6105                	addi	sp,sp,32
800003cc:	8082                	ret

800003ce <process_stop>:
process_stop():
E:\nucleistudio_workspace\test_encry_decry\Debug/../hbird_sdk/SoC/hbirdv2/Common/Source/Drivers/des_aes.c:27

void process_stop(){
800003ce:	1141                	addi	sp,sp,-16
800003d0:	c622                	sw	s0,12(sp)
800003d2:	0800                	addi	s0,sp,16
E:\nucleistudio_workspace\test_encry_decry\Debug/../hbird_sdk/SoC/hbirdv2/Common/Source/Drivers/des_aes.c:28
	DES_AES->REG_ENABLE = 0x00000000;
800003d4:	100507b7          	lui	a5,0x10050
800003d8:	0207a023          	sw	zero,32(a5) # 10050020 <__stack_size+0x1004f820>
E:\nucleistudio_workspace\test_encry_decry\Debug/../hbird_sdk/SoC/hbirdv2/Common/Source/Drivers/des_aes.c:29
}
800003dc:	0001                	nop
800003de:	4432                	lw	s0,12(sp)
800003e0:	0141                	addi	sp,sp,16
800003e2:	8082                	ret

800003e4 <retrive_result>:
retrive_result():
E:\nucleistudio_workspace\test_encry_decry\Debug/../hbird_sdk/SoC/hbirdv2/Common/Source/Drivers/des_aes.c:33


//实验证明，只要有DES_AES->REG_XXXX就能读取到寄存器的数据，可以没有想与操作，也可以没有uint32_t的强制类型转换
uint32_t retrive_result(uint32_t round){
800003e4:	7179                	addi	sp,sp,-48
800003e6:	d622                	sw	s0,44(sp)
800003e8:	1800                	addi	s0,sp,48
800003ea:	fca42e23          	sw	a0,-36(s0)
E:\nucleistudio_workspace\test_encry_decry\Debug/../hbird_sdk/SoC/hbirdv2/Common/Source/Drivers/des_aes.c:35
	uint32_t value;
	if (round == FirstRound) {
800003ee:	fdc42703          	lw	a4,-36(s0)
800003f2:	4785                	li	a5,1
800003f4:	00f71a63          	bne	a4,a5,80000408 <retrive_result+0x24>
E:\nucleistudio_workspace\test_encry_decry\Debug/../hbird_sdk/SoC/hbirdv2/Common/Source/Drivers/des_aes.c:36
		value = (uint32_t) DES_AES->REG_RESULT0;// & 0xffffffff;
800003f8:	100507b7          	lui	a5,0x10050
800003fc:	579c                	lw	a5,40(a5)
800003fe:	fef42623          	sw	a5,-20(s0)
E:\nucleistudio_workspace\test_encry_decry\Debug/../hbird_sdk/SoC/hbirdv2/Common/Source/Drivers/des_aes.c:37
		return value;
80000402:	fec42783          	lw	a5,-20(s0)
80000406:	a0a9                	j	80000450 <retrive_result+0x6c>
E:\nucleistudio_workspace\test_encry_decry\Debug/../hbird_sdk/SoC/hbirdv2/Common/Source/Drivers/des_aes.c:38
	} else if (round == SecondRound) {
80000408:	fdc42703          	lw	a4,-36(s0)
8000040c:	4789                	li	a5,2
8000040e:	00f71a63          	bne	a4,a5,80000422 <retrive_result+0x3e>
E:\nucleistudio_workspace\test_encry_decry\Debug/../hbird_sdk/SoC/hbirdv2/Common/Source/Drivers/des_aes.c:39
		value = (uint32_t) DES_AES->REG_RESULT1;
80000412:	100507b7          	lui	a5,0x10050
80000416:	57dc                	lw	a5,44(a5)
80000418:	fef42623          	sw	a5,-20(s0)
E:\nucleistudio_workspace\test_encry_decry\Debug/../hbird_sdk/SoC/hbirdv2/Common/Source/Drivers/des_aes.c:40
		return value;
8000041c:	fec42783          	lw	a5,-20(s0)
80000420:	a805                	j	80000450 <retrive_result+0x6c>
E:\nucleistudio_workspace\test_encry_decry\Debug/../hbird_sdk/SoC/hbirdv2/Common/Source/Drivers/des_aes.c:41
	} else if (round == ThirdRound) {
80000422:	fdc42703          	lw	a4,-36(s0)
80000426:	478d                	li	a5,3
80000428:	00f71a63          	bne	a4,a5,8000043c <retrive_result+0x58>
E:\nucleistudio_workspace\test_encry_decry\Debug/../hbird_sdk/SoC/hbirdv2/Common/Source/Drivers/des_aes.c:42
		value =  (uint32_t) DES_AES->REG_RESULT2;// & 0xffffffff;
8000042c:	100507b7          	lui	a5,0x10050
80000430:	5b9c                	lw	a5,48(a5)
80000432:	fef42623          	sw	a5,-20(s0)
E:\nucleistudio_workspace\test_encry_decry\Debug/../hbird_sdk/SoC/hbirdv2/Common/Source/Drivers/des_aes.c:43
		return value;
80000436:	fec42783          	lw	a5,-20(s0)
8000043a:	a819                	j	80000450 <retrive_result+0x6c>
E:\nucleistudio_workspace\test_encry_decry\Debug/../hbird_sdk/SoC/hbirdv2/Common/Source/Drivers/des_aes.c:44
	} else if (round == ForthRound) {
8000043c:	fdc42703          	lw	a4,-36(s0)
80000440:	4791                	li	a5,4
80000442:	00f71663          	bne	a4,a5,8000044e <retrive_result+0x6a>
E:\nucleistudio_workspace\test_encry_decry\Debug/../hbird_sdk/SoC/hbirdv2/Common/Source/Drivers/des_aes.c:45
		return (uint32_t) DES_AES->REG_RESULT3; // & 0xffffffff;
80000446:	100507b7          	lui	a5,0x10050
8000044a:	5bdc                	lw	a5,52(a5)
8000044c:	a011                	j	80000450 <retrive_result+0x6c>
E:\nucleistudio_workspace\test_encry_decry\Debug/../hbird_sdk/SoC/hbirdv2/Common/Source/Drivers/des_aes.c:47
	}
	return 0;
8000044e:	4781                	li	a5,0
E:\nucleistudio_workspace\test_encry_decry\Debug/../hbird_sdk/SoC/hbirdv2/Common/Source/Drivers/des_aes.c:48
}
80000450:	853e                	mv	a0,a5
80000452:	5432                	lw	s0,44(sp)
80000454:	6145                	addi	sp,sp,48
80000456:	8082                	ret

80000458 <gpio_iof_config>:
gpio_iof_config():
E:\nucleistudio_workspace\test_encry_decry\Debug/../hbird_sdk/SoC/hbirdv2/Common/Source/Drivers/hbirdv2_gpio.c:5
#include "hbirdv2.h"
#include "hbirdv2_gpio.h"

int32_t gpio_iof_config(GPIO_TypeDef *gpio, uint32_t mask)
{
80000458:	1101                	addi	sp,sp,-32
8000045a:	ce22                	sw	s0,28(sp)
8000045c:	1000                	addi	s0,sp,32
8000045e:	fea42623          	sw	a0,-20(s0)
80000462:	feb42423          	sw	a1,-24(s0)
E:\nucleistudio_workspace\test_encry_decry\Debug/../hbird_sdk/SoC/hbirdv2/Common/Source/Drivers/hbirdv2_gpio.c:6
    if (__RARELY(gpio == NULL)) {
80000466:	fec42783          	lw	a5,-20(s0)
8000046a:	0017b793          	seqz	a5,a5
8000046e:	0ff7f793          	zext.b	a5,a5
80000472:	c399                	beqz	a5,80000478 <gpio_iof_config+0x20>
E:\nucleistudio_workspace\test_encry_decry\Debug/../hbird_sdk/SoC/hbirdv2/Common/Source/Drivers/hbirdv2_gpio.c:7
        return -1;
80000474:	57fd                	li	a5,-1
80000476:	a819                	j	8000048c <gpio_iof_config+0x34>
E:\nucleistudio_workspace\test_encry_decry\Debug/../hbird_sdk/SoC/hbirdv2/Common/Source/Drivers/hbirdv2_gpio.c:9
    }
    gpio->IOFCFG |= mask;
80000478:	fec42783          	lw	a5,-20(s0)
8000047c:	4fd8                	lw	a4,28(a5)
8000047e:	fe842783          	lw	a5,-24(s0)
80000482:	8f5d                	or	a4,a4,a5
80000484:	fec42783          	lw	a5,-20(s0)
80000488:	cfd8                	sw	a4,28(a5)
E:\nucleistudio_workspace\test_encry_decry\Debug/../hbird_sdk/SoC/hbirdv2/Common/Source/Drivers/hbirdv2_gpio.c:11

    return 0;
8000048a:	4781                	li	a5,0
E:\nucleistudio_workspace\test_encry_decry\Debug/../hbird_sdk/SoC/hbirdv2/Common/Source/Drivers/hbirdv2_gpio.c:12
}
8000048c:	853e                	mv	a0,a5
8000048e:	4472                	lw	s0,28(sp)
80000490:	6105                	addi	sp,sp,32
80000492:	8082                	ret

80000494 <uart_init>:
uart_init():
E:\nucleistudio_workspace\test_encry_decry\Debug/../hbird_sdk/SoC/hbirdv2/Common/Source/Drivers/hbirdv2_uart.c:5
#include "hbirdv2.h"
#include "hbirdv2_uart.h"

int32_t uart_init(UART_TypeDef *uart, uint32_t baudrate)
{
80000494:	7179                	addi	sp,sp,-48
80000496:	d622                	sw	s0,44(sp)
80000498:	1800                	addi	s0,sp,48
8000049a:	fca42e23          	sw	a0,-36(s0)
8000049e:	fcb42c23          	sw	a1,-40(s0)
E:\nucleistudio_workspace\test_encry_decry\Debug/../hbird_sdk/SoC/hbirdv2/Common/Source/Drivers/hbirdv2_uart.c:6
    if (__RARELY(uart == NULL)) {
800004a2:	fdc42783          	lw	a5,-36(s0)
800004a6:	0017b793          	seqz	a5,a5
800004aa:	0ff7f793          	zext.b	a5,a5
800004ae:	c399                	beqz	a5,800004b4 <uart_init+0x20>
E:\nucleistudio_workspace\test_encry_decry\Debug/../hbird_sdk/SoC/hbirdv2/Common/Source/Drivers/hbirdv2_uart.c:7
        return -1;
800004b0:	57fd                	li	a5,-1
800004b2:	a899                	j	80000508 <uart_init+0x74>
E:\nucleistudio_workspace\test_encry_decry\Debug/../hbird_sdk/SoC/hbirdv2/Common/Source/Drivers/hbirdv2_uart.c:10
    }

    unsigned int uart_div = SystemCoreClock / baudrate - 1;
800004b4:	10000797          	auipc	a5,0x10000
800004b8:	bb078793          	addi	a5,a5,-1104 # 90000064 <SystemCoreClock>
800004bc:	4398                	lw	a4,0(a5)
800004be:	fd842783          	lw	a5,-40(s0)
800004c2:	02f757b3          	divu	a5,a4,a5
800004c6:	17fd                	addi	a5,a5,-1
800004c8:	fef42623          	sw	a5,-20(s0)
E:\nucleistudio_workspace\test_encry_decry\Debug/../hbird_sdk/SoC/hbirdv2/Common/Source/Drivers/hbirdv2_uart.c:11
    uart->LCR = 0x80;
800004cc:	fdc42783          	lw	a5,-36(s0)
800004d0:	08000713          	li	a4,128
800004d4:	c7d8                	sw	a4,12(a5)
E:\nucleistudio_workspace\test_encry_decry\Debug/../hbird_sdk/SoC/hbirdv2/Common/Source/Drivers/hbirdv2_uart.c:12
    uart->DLM = (uart_div >> 8) & 0xFF;
800004d6:	fec42783          	lw	a5,-20(s0)
800004da:	83a1                	srli	a5,a5,0x8
800004dc:	0ff7f713          	zext.b	a4,a5
800004e0:	fdc42783          	lw	a5,-36(s0)
800004e4:	c3d8                	sw	a4,4(a5)
E:\nucleistudio_workspace\test_encry_decry\Debug/../hbird_sdk/SoC/hbirdv2/Common/Source/Drivers/hbirdv2_uart.c:13
    uart->DLL = uart_div        & 0xFF;
800004e6:	fec42783          	lw	a5,-20(s0)
800004ea:	0ff7f713          	zext.b	a4,a5
800004ee:	fdc42783          	lw	a5,-36(s0)
800004f2:	c398                	sw	a4,0(a5)
E:\nucleistudio_workspace\test_encry_decry\Debug/../hbird_sdk/SoC/hbirdv2/Common/Source/Drivers/hbirdv2_uart.c:14
    uart->FCR = 0xC6;
800004f4:	fdc42783          	lw	a5,-36(s0)
800004f8:	0c600713          	li	a4,198
800004fc:	c798                	sw	a4,8(a5)
E:\nucleistudio_workspace\test_encry_decry\Debug/../hbird_sdk/SoC/hbirdv2/Common/Source/Drivers/hbirdv2_uart.c:15
    uart->LCR = 0x03;
800004fe:	fdc42783          	lw	a5,-36(s0)
80000502:	470d                	li	a4,3
80000504:	c7d8                	sw	a4,12(a5)
E:\nucleistudio_workspace\test_encry_decry\Debug/../hbird_sdk/SoC/hbirdv2/Common/Source/Drivers/hbirdv2_uart.c:17

    return 0;
80000506:	4781                	li	a5,0
E:\nucleistudio_workspace\test_encry_decry\Debug/../hbird_sdk/SoC/hbirdv2/Common/Source/Drivers/hbirdv2_uart.c:18
}
80000508:	853e                	mv	a0,a5
8000050a:	5432                	lw	s0,44(sp)
8000050c:	6145                	addi	sp,sp,48
8000050e:	8082                	ret

80000510 <uart_write>:
uart_write():
E:\nucleistudio_workspace\test_encry_decry\Debug/../hbird_sdk/SoC/hbirdv2/Common/Source/Drivers/hbirdv2_uart.c:67

    return 0;
}

int32_t uart_write(UART_TypeDef *uart, uint8_t val)
{
80000510:	1101                	addi	sp,sp,-32
80000512:	ce22                	sw	s0,28(sp)
80000514:	1000                	addi	s0,sp,32
80000516:	fea42623          	sw	a0,-20(s0)
8000051a:	87ae                	mv	a5,a1
8000051c:	fef405a3          	sb	a5,-21(s0)
E:\nucleistudio_workspace\test_encry_decry\Debug/../hbird_sdk/SoC/hbirdv2/Common/Source/Drivers/hbirdv2_uart.c:68
    if (__RARELY(uart == NULL)) {
80000520:	fec42783          	lw	a5,-20(s0)
80000524:	0017b793          	seqz	a5,a5
80000528:	0ff7f793          	zext.b	a5,a5
8000052c:	c399                	beqz	a5,80000532 <uart_write+0x22>
E:\nucleistudio_workspace\test_encry_decry\Debug/../hbird_sdk/SoC/hbirdv2/Common/Source/Drivers/hbirdv2_uart.c:69
        return -1;
8000052e:	57fd                	li	a5,-1
80000530:	a831                	j	8000054c <uart_write+0x3c>
E:\nucleistudio_workspace\test_encry_decry\Debug/../hbird_sdk/SoC/hbirdv2/Common/Source/Drivers/hbirdv2_uart.c:73
    }
#ifndef SIMULATION_SPIKE
#ifndef SIMULATION_XLSPIKE
    while ((uart->LSR & 0x20) == 0);
80000532:	0001                	nop
E:\nucleistudio_workspace\test_encry_decry\Debug/../hbird_sdk/SoC/hbirdv2/Common/Source/Drivers/hbirdv2_uart.c:73 (discriminator 1)
80000534:	fec42783          	lw	a5,-20(s0)
80000538:	4bdc                	lw	a5,20(a5)
8000053a:	0207f793          	andi	a5,a5,32
8000053e:	dbfd                	beqz	a5,80000534 <uart_write+0x24>
E:\nucleistudio_workspace\test_encry_decry\Debug/../hbird_sdk/SoC/hbirdv2/Common/Source/Drivers/hbirdv2_uart.c:75
#endif
    uart->THR = val;
80000540:	feb44703          	lbu	a4,-21(s0)
80000544:	fec42783          	lw	a5,-20(s0)
80000548:	c398                	sw	a4,0(a5)
E:\nucleistudio_workspace\test_encry_decry\Debug/../hbird_sdk/SoC/hbirdv2/Common/Source/Drivers/hbirdv2_uart.c:80
#else
    extern void htif_putc(char ch);
    htif_putc(val);
#endif
    return 0;
8000054a:	4781                	li	a5,0
E:\nucleistudio_workspace\test_encry_decry\Debug/../hbird_sdk/SoC/hbirdv2/Common/Source/Drivers/hbirdv2_uart.c:81
}
8000054c:	853e                	mv	a0,a5
8000054e:	4472                	lw	s0,28(sp)
80000550:	6105                	addi	sp,sp,32
80000552:	8082                	ret

80000554 <uart_read>:
uart_read():
E:\nucleistudio_workspace\test_encry_decry\Debug/../hbird_sdk/SoC/hbirdv2/Common/Source/Drivers/hbirdv2_uart.c:84

uint8_t uart_read(UART_TypeDef *uart)
{
80000554:	7179                	addi	sp,sp,-48
80000556:	d622                	sw	s0,44(sp)
80000558:	1800                	addi	s0,sp,48
8000055a:	fca42e23          	sw	a0,-36(s0)
E:\nucleistudio_workspace\test_encry_decry\Debug/../hbird_sdk/SoC/hbirdv2/Common/Source/Drivers/hbirdv2_uart.c:86
    uint32_t reg;
    if (__RARELY(uart == NULL)) {
8000055e:	fdc42783          	lw	a5,-36(s0)
80000562:	0017b793          	seqz	a5,a5
80000566:	0ff7f793          	zext.b	a5,a5
8000056a:	c781                	beqz	a5,80000572 <uart_read+0x1e>
E:\nucleistudio_workspace\test_encry_decry\Debug/../hbird_sdk/SoC/hbirdv2/Common/Source/Drivers/hbirdv2_uart.c:87
        return -1;
8000056c:	0ff00793          	li	a5,255
80000570:	a005                	j	80000590 <uart_read+0x3c>
E:\nucleistudio_workspace\test_encry_decry\Debug/../hbird_sdk/SoC/hbirdv2/Common/Source/Drivers/hbirdv2_uart.c:90
    }
    
    while ((uart->LSR & 0x1) == 0);
80000572:	0001                	nop
E:\nucleistudio_workspace\test_encry_decry\Debug/../hbird_sdk/SoC/hbirdv2/Common/Source/Drivers/hbirdv2_uart.c:90 (discriminator 1)
80000574:	fdc42783          	lw	a5,-36(s0)
80000578:	4bdc                	lw	a5,20(a5)
8000057a:	8b85                	andi	a5,a5,1
8000057c:	dfe5                	beqz	a5,80000574 <uart_read+0x20>
E:\nucleistudio_workspace\test_encry_decry\Debug/../hbird_sdk/SoC/hbirdv2/Common/Source/Drivers/hbirdv2_uart.c:91
    reg = uart->RBR;
8000057e:	fdc42783          	lw	a5,-36(s0)
80000582:	439c                	lw	a5,0(a5)
80000584:	fef42623          	sw	a5,-20(s0)
E:\nucleistudio_workspace\test_encry_decry\Debug/../hbird_sdk/SoC/hbirdv2/Common/Source/Drivers/hbirdv2_uart.c:93
    
    return (uint8_t)(reg & 0xFF);
80000588:	fec42783          	lw	a5,-20(s0)
8000058c:	0ff7f793          	zext.b	a5,a5
E:\nucleistudio_workspace\test_encry_decry\Debug/../hbird_sdk/SoC/hbirdv2/Common/Source/Drivers/hbirdv2_uart.c:94
}
80000590:	853e                	mv	a0,a5
80000592:	5432                	lw	s0,44(sp)
80000594:	6145                	addi	sp,sp,48
80000596:	8082                	ret

80000598 <measure_cpu_freq>:
measure_cpu_freq():
E:\nucleistudio_workspace\test_encry_decry\Debug/../hbird_sdk/SoC/hbirdv2/Common/Source/hbirdv2_common.c:9
{
    return SOC_TIMER_FREQ;
}

uint32_t measure_cpu_freq(uint32_t n)
{
80000598:	7139                	addi	sp,sp,-64
8000059a:	de06                	sw	ra,60(sp)
8000059c:	dc22                	sw	s0,56(sp)
8000059e:	da26                	sw	s1,52(sp)
800005a0:	0080                	addi	s0,sp,64
800005a2:	fca42623          	sw	a0,-52(s0)
get_timer_freq():
E:\nucleistudio_workspace\test_encry_decry\Debug/../hbird_sdk/SoC/hbirdv2/Common/Source/hbirdv2_common.c:5
    return SOC_TIMER_FREQ;
800005a6:	6621                	lui	a2,0x8
800005a8:	4681                	li	a3,0
measure_cpu_freq():
E:\nucleistudio_workspace\test_encry_decry\Debug/../hbird_sdk/SoC/hbirdv2/Common/Source/hbirdv2_common.c:12
    uint32_t start_mcycle, delta_mcycle;
    uint32_t start_mtime, delta_mtime;
    uint64_t mtime_freq = get_timer_freq();
800005aa:	fec42423          	sw	a2,-24(s0)
800005ae:	fed42623          	sw	a3,-20(s0)
SysTimer_GetLoadValue():
E:\nucleistudio_workspace\test_encry_decry\hbird_sdk\NMSIS\Core\Include/core_feature_timer.h:106
 * - Load value is 64bits wide.
 * - \ref SysTimer_SetLoadValue
 */
__STATIC_FORCEINLINE uint64_t SysTimer_GetLoadValue(void)
{
    return SysTimer->MTIME;
800005b2:	02000637          	lui	a2,0x2000
800005b6:	66b1                	lui	a3,0xc
800005b8:	96b2                	add	a3,a3,a2
800005ba:	ff86a603          	lw	a2,-8(a3) # bff8 <__stack_size+0xb7f8>
800005be:	ffc6a683          	lw	a3,-4(a3)
measure_cpu_freq():
E:\nucleistudio_workspace\test_encry_decry\Debug/../hbird_sdk/SoC/hbirdv2/Common/Source/hbirdv2_common.c:15

    // Don't start measuruing until we see an mtime tick
    uint32_t tmp = (uint32_t)SysTimer_GetLoadValue();
800005c2:	fec42223          	sw	a2,-28(s0)
SysTimer_GetLoadValue():
E:\nucleistudio_workspace\test_encry_decry\hbird_sdk\NMSIS\Core\Include/core_feature_timer.h:106 (discriminator 1)
800005c6:	02000637          	lui	a2,0x2000
800005ca:	66b1                	lui	a3,0xc
800005cc:	96b2                	add	a3,a3,a2
800005ce:	ff86a603          	lw	a2,-8(a3) # bff8 <__stack_size+0xb7f8>
800005d2:	ffc6a683          	lw	a3,-4(a3)
measure_cpu_freq():
E:\nucleistudio_workspace\test_encry_decry\Debug/../hbird_sdk/SoC/hbirdv2/Common/Source/hbirdv2_common.c:17 (discriminator 1)
    do {
        start_mtime = (uint32_t)SysTimer_GetLoadValue();
800005d6:	fec42023          	sw	a2,-32(s0)
E:\nucleistudio_workspace\test_encry_decry\Debug/../hbird_sdk/SoC/hbirdv2/Common/Source/hbirdv2_common.c:18 (discriminator 1)
        start_mcycle = __RV_CSR_READ(CSR_MCYCLE);
800005da:	b00026f3          	csrr	a3,mcycle
800005de:	80b6                	mv	ra,a3
800005e0:	8686                	mv	a3,ra
800005e2:	fcd42e23          	sw	a3,-36(s0)
E:\nucleistudio_workspace\test_encry_decry\Debug/../hbird_sdk/SoC/hbirdv2/Common/Source/hbirdv2_common.c:19 (discriminator 1)
    } while (start_mtime == tmp);
800005e6:	fe042603          	lw	a2,-32(s0)
800005ea:	fe442683          	lw	a3,-28(s0)
800005ee:	fcd60ce3          	beq	a2,a3,800005c6 <measure_cpu_freq+0x2e>
SysTimer_GetLoadValue():
E:\nucleistudio_workspace\test_encry_decry\hbird_sdk\NMSIS\Core\Include/core_feature_timer.h:106 (discriminator 1)
800005f2:	02000637          	lui	a2,0x2000
800005f6:	66b1                	lui	a3,0xc
800005f8:	96b2                	add	a3,a3,a2
800005fa:	ff86a603          	lw	a2,-8(a3) # bff8 <__stack_size+0xb7f8>
800005fe:	ffc6a683          	lw	a3,-4(a3)
measure_cpu_freq():
E:\nucleistudio_workspace\test_encry_decry\Debug/../hbird_sdk/SoC/hbirdv2/Common/Source/hbirdv2_common.c:22 (discriminator 1)

    do {
        delta_mtime = (uint32_t)SysTimer_GetLoadValue() - start_mtime;
80000602:	fe042683          	lw	a3,-32(s0)
80000606:	40d606b3          	sub	a3,a2,a3
8000060a:	fcd42c23          	sw	a3,-40(s0)
E:\nucleistudio_workspace\test_encry_decry\Debug/../hbird_sdk/SoC/hbirdv2/Common/Source/hbirdv2_common.c:23 (discriminator 1)
        delta_mcycle = __RV_CSR_READ(CSR_MCYCLE) - start_mcycle;
8000060e:	b00026f3          	csrr	a3,mcycle
80000612:	80b6                	mv	ra,a3
80000614:	8606                	mv	a2,ra
80000616:	fdc42683          	lw	a3,-36(s0)
8000061a:	40d606b3          	sub	a3,a2,a3
8000061e:	fcd42a23          	sw	a3,-44(s0)
E:\nucleistudio_workspace\test_encry_decry\Debug/../hbird_sdk/SoC/hbirdv2/Common/Source/hbirdv2_common.c:24 (discriminator 1)
    } while (delta_mtime < n);
80000622:	fd842603          	lw	a2,-40(s0)
80000626:	fcc42683          	lw	a3,-52(s0)
8000062a:	fcd664e3          	bltu	a2,a3,800005f2 <measure_cpu_freq+0x5a>
E:\nucleistudio_workspace\test_encry_decry\Debug/../hbird_sdk/SoC/hbirdv2/Common/Source/hbirdv2_common.c:26

    return (delta_mcycle / delta_mtime) * mtime_freq
8000062e:	fd442603          	lw	a2,-44(s0)
80000632:	fd842683          	lw	a3,-40(s0)
80000636:	02d65633          	divu	a2,a2,a3
E:\nucleistudio_workspace\test_encry_decry\Debug/../hbird_sdk/SoC/hbirdv2/Common/Source/hbirdv2_common.c:27
           + ((delta_mcycle % delta_mtime) * mtime_freq) / delta_mtime;
8000063a:	fe842683          	lw	a3,-24(s0)
8000063e:	02d604b3          	mul	s1,a2,a3
80000642:	fd442603          	lw	a2,-44(s0)
80000646:	fd842683          	lw	a3,-40(s0)
8000064a:	02d676b3          	remu	a3,a2,a3
8000064e:	8736                	mv	a4,a3
80000650:	4781                	li	a5,0
80000652:	fe842683          	lw	a3,-24(s0)
80000656:	02f68633          	mul	a2,a3,a5
8000065a:	fec42683          	lw	a3,-20(s0)
8000065e:	02e686b3          	mul	a3,a3,a4
80000662:	9636                	add	a2,a2,a3
80000664:	fe842683          	lw	a3,-24(s0)
80000668:	02e685b3          	mul	a1,a3,a4
8000066c:	02e6b8b3          	mulhu	a7,a3,a4
80000670:	882e                	mv	a6,a1
80000672:	011607b3          	add	a5,a2,a7
80000676:	88be                	mv	a7,a5
80000678:	fd842783          	lw	a5,-40(s0)
8000067c:	833e                	mv	t1,a5
8000067e:	4381                	li	t2,0
80000680:	861a                	mv	a2,t1
80000682:	869e                	mv	a3,t2
80000684:	8542                	mv	a0,a6
80000686:	85c6                	mv	a1,a7
80000688:	7ae000ef          	jal	ra,80000e36 <__udivdi3>
8000068c:	872a                	mv	a4,a0
8000068e:	87ae                	mv	a5,a1
80000690:	87ba                	mv	a5,a4
80000692:	97a6                	add	a5,a5,s1
E:\nucleistudio_workspace\test_encry_decry\Debug/../hbird_sdk/SoC/hbirdv2/Common/Source/hbirdv2_common.c:28
}
80000694:	853e                	mv	a0,a5
80000696:	50f2                	lw	ra,60(sp)
80000698:	5462                	lw	s0,56(sp)
8000069a:	54d2                	lw	s1,52(sp)
8000069c:	6121                	addi	sp,sp,64
8000069e:	8082                	ret

800006a0 <get_cpu_freq>:
get_cpu_freq():
E:\nucleistudio_workspace\test_encry_decry\Debug/../hbird_sdk/SoC/hbirdv2/Common/Source/hbirdv2_common.c:31

uint32_t get_cpu_freq(void)
{
800006a0:	1101                	addi	sp,sp,-32
800006a2:	ce06                	sw	ra,28(sp)
800006a4:	cc22                	sw	s0,24(sp)
800006a6:	1000                	addi	s0,sp,32
E:\nucleistudio_workspace\test_encry_decry\Debug/../hbird_sdk/SoC/hbirdv2/Common/Source/hbirdv2_common.c:35
    uint32_t cpu_freq;

    // warm up
    measure_cpu_freq(1);
800006a8:	4505                	li	a0,1
800006aa:	35fd                	jal	80000598 <measure_cpu_freq>
E:\nucleistudio_workspace\test_encry_decry\Debug/../hbird_sdk/SoC/hbirdv2/Common/Source/hbirdv2_common.c:37
    // measure for real
    cpu_freq = measure_cpu_freq(100);
800006ac:	06400513          	li	a0,100
800006b0:	35e5                	jal	80000598 <measure_cpu_freq>
800006b2:	fea42623          	sw	a0,-20(s0)
E:\nucleistudio_workspace\test_encry_decry\Debug/../hbird_sdk/SoC/hbirdv2/Common/Source/hbirdv2_common.c:39

    return cpu_freq;
800006b6:	fec42783          	lw	a5,-20(s0)
E:\nucleistudio_workspace\test_encry_decry\Debug/../hbird_sdk/SoC/hbirdv2/Common/Source/hbirdv2_common.c:40
}
800006ba:	853e                	mv	a0,a5
800006bc:	40f2                	lw	ra,28(sp)
800006be:	4462                	lw	s0,24(sp)
800006c0:	6105                	addi	sp,sp,32
800006c2:	8082                	ret

800006c4 <SystemInit>:
SystemInit():
E:\nucleistudio_workspace\test_encry_decry\Debug/../hbird_sdk/SoC/hbirdv2/Common/Source/system_hbirdv2.c:120
 * oscillator (PLL) that is part of the microcontroller device. For systems
 * with a variable clock speed, it updates the variable \ref SystemCoreClock.
 * SystemInit is called from the file <b>startup<i>_device</i></b>.
 */
void SystemInit (void)
{
800006c4:	1141                	addi	sp,sp,-16
800006c6:	c622                	sw	s0,12(sp)
800006c8:	0800                	addi	s0,sp,16
E:\nucleistudio_workspace\test_encry_decry\Debug/../hbird_sdk/SoC/hbirdv2/Common/Source/system_hbirdv2.c:125
    /* ToDo: add code to initialize the system
     * Warn: do not use global variables because this function is called before
     * reaching pre-main. RW section maybe overwritten afterwards.
     */
    SystemCoreClock = SYSTEM_CLOCK;
800006ca:	10000797          	auipc	a5,0x10000
800006ce:	99a78793          	addi	a5,a5,-1638 # 90000064 <SystemCoreClock>
800006d2:	04c4b737          	lui	a4,0x4c4b
800006d6:	40070713          	addi	a4,a4,1024 # 4c4b400 <__stack_size+0x4c4ac00>
800006da:	c398                	sw	a4,0(a5)
E:\nucleistudio_workspace\test_encry_decry\Debug/../hbird_sdk/SoC/hbirdv2/Common/Source/system_hbirdv2.c:126
}
800006dc:	0001                	nop
800006de:	4432                	lw	s0,12(sp)
800006e0:	0141                	addi	sp,sp,16
800006e2:	8082                	ret

800006e4 <system_default_exception_handler>:
system_default_exception_handler():
E:\nucleistudio_workspace\test_encry_decry\Debug/../hbird_sdk/SoC/hbirdv2/Common/Source/system_hbirdv2.c:168
 * \details
 * This function provided a default exception handling code for all exception ids.
 * By default, It will just print some information for debug, Vendor can customize it according to its requirements.
 */
static void system_default_exception_handler(unsigned long mcause, unsigned long sp)
{
800006e4:	1101                	addi	sp,sp,-32
800006e6:	ce06                	sw	ra,28(sp)
800006e8:	cc22                	sw	s0,24(sp)
800006ea:	1000                	addi	s0,sp,32
800006ec:	fea42623          	sw	a0,-20(s0)
800006f0:	feb42423          	sw	a1,-24(s0)
E:\nucleistudio_workspace\test_encry_decry\Debug/../hbird_sdk/SoC/hbirdv2/Common/Source/system_hbirdv2.c:170
    /* TODO: Uncomment this if you have implement printf function */
    printf("Trap in Exception\r\n");
800006f4:	00002517          	auipc	a0,0x2
800006f8:	df850513          	addi	a0,a0,-520 # 800024ec <_read_r+0x2e>
800006fc:	44d000ef          	jal	ra,80001348 <puts>
E:\nucleistudio_workspace\test_encry_decry\Debug/../hbird_sdk/SoC/hbirdv2/Common/Source/system_hbirdv2.c:171
    printf("MCAUSE: 0x%lx\r\n", mcause);
80000700:	fec42583          	lw	a1,-20(s0)
80000704:	00002517          	auipc	a0,0x2
80000708:	dfc50513          	addi	a0,a0,-516 # 80002500 <_read_r+0x42>
8000070c:	329000ef          	jal	ra,80001234 <iprintf>
E:\nucleistudio_workspace\test_encry_decry\Debug/../hbird_sdk/SoC/hbirdv2/Common/Source/system_hbirdv2.c:172
    printf("MEPC  : 0x%lx\r\n", __RV_CSR_READ(CSR_MEPC));
80000710:	341027f3          	csrr	a5,mepc
80000714:	80be                	mv	ra,a5
80000716:	8786                	mv	a5,ra
80000718:	85be                	mv	a1,a5
8000071a:	00002517          	auipc	a0,0x2
8000071e:	df650513          	addi	a0,a0,-522 # 80002510 <_read_r+0x52>
80000722:	313000ef          	jal	ra,80001234 <iprintf>
E:\nucleistudio_workspace\test_encry_decry\Debug/../hbird_sdk/SoC/hbirdv2/Common/Source/system_hbirdv2.c:173
    printf("MTVAL : 0x%lx\r\n", __RV_CSR_READ(CSR_MBADADDR));
80000726:	343027f3          	csrr	a5,mtval
8000072a:	80be                	mv	ra,a5
8000072c:	8786                	mv	a5,ra
8000072e:	85be                	mv	a1,a5
80000730:	00002517          	auipc	a0,0x2
80000734:	df050513          	addi	a0,a0,-528 # 80002520 <_read_r+0x62>
80000738:	2fd000ef          	jal	ra,80001234 <iprintf>
E:\nucleistudio_workspace\test_encry_decry\Debug/../hbird_sdk/SoC/hbirdv2/Common/Source/system_hbirdv2.c:174 (discriminator 1)
    while(1);
8000073c:	a001                	j	8000073c <system_default_exception_handler+0x58>

8000073e <system_default_interrupt_handler>:
system_default_interrupt_handler():
E:\nucleistudio_workspace\test_encry_decry\Debug/../hbird_sdk/SoC/hbirdv2/Common/Source/system_hbirdv2.c:183
 * \brief      System Default Interrupt Handler
 * \details
 * This function provided a default interrupt handling code for all interrupt ids.
 */
static void system_default_interrupt_handler(unsigned long mcause, unsigned long sp)
{
8000073e:	1101                	addi	sp,sp,-32
80000740:	ce06                	sw	ra,28(sp)
80000742:	cc22                	sw	s0,24(sp)
80000744:	1000                	addi	s0,sp,32
80000746:	fea42623          	sw	a0,-20(s0)
8000074a:	feb42423          	sw	a1,-24(s0)
E:\nucleistudio_workspace\test_encry_decry\Debug/../hbird_sdk/SoC/hbirdv2/Common/Source/system_hbirdv2.c:185
    /* TODO: Uncomment this if you have implement printf function */
    printf("Trap in Interrupt\r\n");
8000074e:	00002517          	auipc	a0,0x2
80000752:	de250513          	addi	a0,a0,-542 # 80002530 <_read_r+0x72>
80000756:	3f3000ef          	jal	ra,80001348 <puts>
E:\nucleistudio_workspace\test_encry_decry\Debug/../hbird_sdk/SoC/hbirdv2/Common/Source/system_hbirdv2.c:186
    printf("MCAUSE: 0x%lx\r\n", mcause);
8000075a:	fec42583          	lw	a1,-20(s0)
8000075e:	00002517          	auipc	a0,0x2
80000762:	da250513          	addi	a0,a0,-606 # 80002500 <_read_r+0x42>
80000766:	2cf000ef          	jal	ra,80001234 <iprintf>
E:\nucleistudio_workspace\test_encry_decry\Debug/../hbird_sdk/SoC/hbirdv2/Common/Source/system_hbirdv2.c:187
    printf("MEPC  : 0x%lx\r\n", __RV_CSR_READ(CSR_MEPC));
8000076a:	341027f3          	csrr	a5,mepc
8000076e:	80be                	mv	ra,a5
80000770:	8786                	mv	a5,ra
80000772:	85be                	mv	a1,a5
80000774:	00002517          	auipc	a0,0x2
80000778:	d9c50513          	addi	a0,a0,-612 # 80002510 <_read_r+0x52>
8000077c:	2b9000ef          	jal	ra,80001234 <iprintf>
E:\nucleistudio_workspace\test_encry_decry\Debug/../hbird_sdk/SoC/hbirdv2/Common/Source/system_hbirdv2.c:188
    printf("MTVAL : 0x%lx\r\n", __RV_CSR_READ(CSR_MBADADDR));
80000780:	343027f3          	csrr	a5,mtval
80000784:	80be                	mv	ra,a5
80000786:	8786                	mv	a5,ra
80000788:	85be                	mv	a1,a5
8000078a:	00002517          	auipc	a0,0x2
8000078e:	d9650513          	addi	a0,a0,-618 # 80002520 <_read_r+0x62>
80000792:	2a3000ef          	jal	ra,80001234 <iprintf>
E:\nucleistudio_workspace\test_encry_decry\Debug/../hbird_sdk/SoC/hbirdv2/Common/Source/system_hbirdv2.c:189
}
80000796:	0001                	nop
80000798:	40f2                	lw	ra,28(sp)
8000079a:	4462                	lw	s0,24(sp)
8000079c:	6105                	addi	sp,sp,32
8000079e:	8082                	ret

800007a0 <Exception_Init>:
Exception_Init():
E:\nucleistudio_workspace\test_encry_decry\Debug/../hbird_sdk/SoC/hbirdv2/Common/Source/system_hbirdv2.c:199
 * The core exception handler for each exception id will be initialized to \ref system_default_exception_handler.
 * \note
 * Called in \ref _init function, used to initialize default exception handlers for all exception IDs
 */
static void Exception_Init(void)
{
800007a0:	1101                	addi	sp,sp,-32
800007a2:	ce22                	sw	s0,28(sp)
800007a4:	1000                	addi	s0,sp,32
E:\nucleistudio_workspace\test_encry_decry\Debug/../hbird_sdk/SoC/hbirdv2/Common/Source/system_hbirdv2.c:200
    for (int i = 0; i < MAX_SYSTEM_EXCEPTION_NUM; i++) {
800007a6:	fe042623          	sw	zero,-20(s0)
800007aa:	a00d                	j	800007cc <Exception_Init+0x2c>
E:\nucleistudio_workspace\test_encry_decry\Debug/../hbird_sdk/SoC/hbirdv2/Common/Source/system_hbirdv2.c:201 (discriminator 3)
        SystemExceptionHandlers[i] = (unsigned long)system_default_exception_handler;
800007ac:	00000717          	auipc	a4,0x0
800007b0:	f3870713          	addi	a4,a4,-200 # 800006e4 <system_default_exception_handler>
800007b4:	83418693          	addi	a3,gp,-1996 # 90000094 <SystemExceptionHandlers>
800007b8:	fec42783          	lw	a5,-20(s0)
800007bc:	078a                	slli	a5,a5,0x2
800007be:	97b6                	add	a5,a5,a3
800007c0:	c398                	sw	a4,0(a5)
E:\nucleistudio_workspace\test_encry_decry\Debug/../hbird_sdk/SoC/hbirdv2/Common/Source/system_hbirdv2.c:200 (discriminator 3)
    for (int i = 0; i < MAX_SYSTEM_EXCEPTION_NUM; i++) {
800007c2:	fec42783          	lw	a5,-20(s0)
800007c6:	0785                	addi	a5,a5,1
800007c8:	fef42623          	sw	a5,-20(s0)
E:\nucleistudio_workspace\test_encry_decry\Debug/../hbird_sdk/SoC/hbirdv2/Common/Source/system_hbirdv2.c:200 (discriminator 1)
800007cc:	fec42703          	lw	a4,-20(s0)
800007d0:	47a9                	li	a5,10
800007d2:	fce7dde3          	bge	a5,a4,800007ac <Exception_Init+0xc>
E:\nucleistudio_workspace\test_encry_decry\Debug/../hbird_sdk/SoC/hbirdv2/Common/Source/system_hbirdv2.c:203
    }
}
800007d6:	0001                	nop
800007d8:	0001                	nop
800007da:	4472                	lw	s0,28(sp)
800007dc:	6105                	addi	sp,sp,32
800007de:	8082                	ret

800007e0 <Interrupt_Init>:
Interrupt_Init():
E:\nucleistudio_workspace\test_encry_decry\Debug/../hbird_sdk/SoC/hbirdv2/Common/Source/system_hbirdv2.c:213
 * The interrupt handler for each exception id will be initialized to \ref system_default_interrupt_handler.
 * \note
 * Called in \ref _init function, used to initialize default interrupt handlers for all interrupt IDs
 */
static void Interrupt_Init(void)
{
800007e0:	1101                	addi	sp,sp,-32
800007e2:	ce22                	sw	s0,28(sp)
800007e4:	1000                	addi	s0,sp,32
E:\nucleistudio_workspace\test_encry_decry\Debug/../hbird_sdk/SoC/hbirdv2/Common/Source/system_hbirdv2.c:215
    int i;
    for (i = 0; i < __PLIC_INTNUM; i++) {
800007e6:	fe042623          	sw	zero,-20(s0)
800007ea:	a00d                	j	8000080c <Interrupt_Init+0x2c>
E:\nucleistudio_workspace\test_encry_decry\Debug/../hbird_sdk/SoC/hbirdv2/Common/Source/system_hbirdv2.c:216 (discriminator 3)
        SystemExtInterruptHandlers[i] = (unsigned long)system_default_interrupt_handler;
800007ec:	00000717          	auipc	a4,0x0
800007f0:	f5270713          	addi	a4,a4,-174 # 8000073e <system_default_interrupt_handler>
800007f4:	86018693          	addi	a3,gp,-1952 # 900000c0 <SystemExtInterruptHandlers>
800007f8:	fec42783          	lw	a5,-20(s0)
800007fc:	078a                	slli	a5,a5,0x2
800007fe:	97b6                	add	a5,a5,a3
80000800:	c398                	sw	a4,0(a5)
E:\nucleistudio_workspace\test_encry_decry\Debug/../hbird_sdk/SoC/hbirdv2/Common/Source/system_hbirdv2.c:215 (discriminator 3)
    for (i = 0; i < __PLIC_INTNUM; i++) {
80000802:	fec42783          	lw	a5,-20(s0)
80000806:	0785                	addi	a5,a5,1
80000808:	fef42623          	sw	a5,-20(s0)
E:\nucleistudio_workspace\test_encry_decry\Debug/../hbird_sdk/SoC/hbirdv2/Common/Source/system_hbirdv2.c:215 (discriminator 1)
8000080c:	fec42703          	lw	a4,-20(s0)
80000810:	47c1                	li	a5,16
80000812:	fce7dde3          	bge	a5,a4,800007ec <Interrupt_Init+0xc>
E:\nucleistudio_workspace\test_encry_decry\Debug/../hbird_sdk/SoC/hbirdv2/Common/Source/system_hbirdv2.c:218
    }
    for (i = 0; i < 10; i++) {
80000816:	fe042623          	sw	zero,-20(s0)
8000081a:	a00d                	j	8000083c <Interrupt_Init+0x5c>
E:\nucleistudio_workspace\test_encry_decry\Debug/../hbird_sdk/SoC/hbirdv2/Common/Source/system_hbirdv2.c:219 (discriminator 3)
        SystemCoreInterruptHandlers[i] = (unsigned long)system_default_interrupt_handler;
8000081c:	00000717          	auipc	a4,0x0
80000820:	f2270713          	addi	a4,a4,-222 # 8000073e <system_default_interrupt_handler>
80000824:	8a418693          	addi	a3,gp,-1884 # 90000104 <SystemCoreInterruptHandlers>
80000828:	fec42783          	lw	a5,-20(s0)
8000082c:	078a                	slli	a5,a5,0x2
8000082e:	97b6                	add	a5,a5,a3
80000830:	c398                	sw	a4,0(a5)
E:\nucleistudio_workspace\test_encry_decry\Debug/../hbird_sdk/SoC/hbirdv2/Common/Source/system_hbirdv2.c:218 (discriminator 3)
    for (i = 0; i < 10; i++) {
80000832:	fec42783          	lw	a5,-20(s0)
80000836:	0785                	addi	a5,a5,1
80000838:	fef42623          	sw	a5,-20(s0)
E:\nucleistudio_workspace\test_encry_decry\Debug/../hbird_sdk/SoC/hbirdv2/Common/Source/system_hbirdv2.c:218 (discriminator 1)
8000083c:	fec42703          	lw	a4,-20(s0)
80000840:	47a5                	li	a5,9
80000842:	fce7dde3          	bge	a5,a4,8000081c <Interrupt_Init+0x3c>
E:\nucleistudio_workspace\test_encry_decry\Debug/../hbird_sdk/SoC/hbirdv2/Common/Source/system_hbirdv2.c:221
    }
}
80000846:	0001                	nop
80000848:	0001                	nop
8000084a:	4472                	lw	s0,28(sp)
8000084c:	6105                	addi	sp,sp,32
8000084e:	8082                	ret

80000850 <Interrupt_Register_ExtIRQ>:
Interrupt_Register_ExtIRQ():
E:\nucleistudio_workspace\test_encry_decry\Debug/../hbird_sdk/SoC/hbirdv2/Common/Source/system_hbirdv2.c:259
 * * For irqn <= \ref __PLIC_INTNUM, it will be registered into SystemExtInterruptHandlers[irqn-1].
 * \param   irqn    See \ref IRQn
 * \param   int_handler     The external interrupt handler for this interrupt code irqn
 */
void Interrupt_Register_ExtIRQ(uint32_t irqn, unsigned long int_handler)
{
80000850:	1101                	addi	sp,sp,-32
80000852:	ce22                	sw	s0,28(sp)
80000854:	1000                	addi	s0,sp,32
80000856:	fea42623          	sw	a0,-20(s0)
8000085a:	feb42423          	sw	a1,-24(s0)
E:\nucleistudio_workspace\test_encry_decry\Debug/../hbird_sdk/SoC/hbirdv2/Common/Source/system_hbirdv2.c:260
    if ((irqn <= __PLIC_INTNUM) && (irqn >= 0)) {
8000085e:	fec42703          	lw	a4,-20(s0)
80000862:	47c5                	li	a5,17
80000864:	00e7eb63          	bltu	a5,a4,8000087a <Interrupt_Register_ExtIRQ+0x2a>
E:\nucleistudio_workspace\test_encry_decry\Debug/../hbird_sdk/SoC/hbirdv2/Common/Source/system_hbirdv2.c:261
        SystemExtInterruptHandlers[irqn] = int_handler;
80000868:	86018713          	addi	a4,gp,-1952 # 900000c0 <SystemExtInterruptHandlers>
8000086c:	fec42783          	lw	a5,-20(s0)
80000870:	078a                	slli	a5,a5,0x2
80000872:	97ba                	add	a5,a5,a4
80000874:	fe842703          	lw	a4,-24(s0)
80000878:	c398                	sw	a4,0(a5)
E:\nucleistudio_workspace\test_encry_decry\Debug/../hbird_sdk/SoC/hbirdv2/Common/Source/system_hbirdv2.c:263
    }
}
8000087a:	0001                	nop
8000087c:	4472                	lw	s0,28(sp)
8000087e:	6105                	addi	sp,sp,32
80000880:	8082                	ret

80000882 <core_trap_handler>:
core_trap_handler():
E:\nucleistudio_workspace\test_encry_decry\Debug/../hbird_sdk/SoC/hbirdv2/Common/Source/system_hbirdv2.c:322
 * - If you want to register core exception handler, please use \ref Exception_Register_EXC
 * - If you want to register core interrupt handler, please use \ref Interrupt_Register_CoreIRQ
 * - If you want to register external interrupt handler, please use \ref Interrupt_Register_ExtIRQ
 */
uint32_t core_trap_handler(unsigned long mcause, unsigned long sp)
{
80000882:	7139                	addi	sp,sp,-64
80000884:	de06                	sw	ra,60(sp)
80000886:	dc22                	sw	s0,56(sp)
80000888:	da26                	sw	s1,52(sp)
8000088a:	0080                	addi	s0,sp,64
8000088c:	fca42623          	sw	a0,-52(s0)
80000890:	fcb42423          	sw	a1,-56(s0)
E:\nucleistudio_workspace\test_encry_decry\Debug/../hbird_sdk/SoC/hbirdv2/Common/Source/system_hbirdv2.c:323
    if (mcause & MCAUSE_INTERRUPT) {
80000894:	fcc42783          	lw	a5,-52(s0)
80000898:	0c07dc63          	bgez	a5,80000970 <core_trap_handler+0xee>
E:\nucleistudio_workspace\test_encry_decry\Debug/../hbird_sdk/SoC/hbirdv2/Common/Source/system_hbirdv2.c:324
        INT_HANDLER int_handler = NULL;
8000089c:	fe042623          	sw	zero,-20(s0)
E:\nucleistudio_workspace\test_encry_decry\Debug/../hbird_sdk/SoC/hbirdv2/Common/Source/system_hbirdv2.c:325
        uint32_t irqn = (uint32_t)(mcause & 0X00000fff);
800008a0:	fcc42703          	lw	a4,-52(s0)
800008a4:	6785                	lui	a5,0x1
800008a6:	17fd                	addi	a5,a5,-1
800008a8:	8ff9                	and	a5,a5,a4
800008aa:	fef42423          	sw	a5,-24(s0)
E:\nucleistudio_workspace\test_encry_decry\Debug/../hbird_sdk/SoC/hbirdv2/Common/Source/system_hbirdv2.c:326
        if (irqn == IRQ_M_EXT) {
800008ae:	fe842703          	lw	a4,-24(s0)
800008b2:	47ad                	li	a5,11
800008b4:	08f71963          	bne	a4,a5,80000946 <core_trap_handler+0xc4>
PLIC_ClaimInterrupt():
E:\nucleistudio_workspace\test_encry_decry\hbird_sdk\NMSIS\Core\Include/core_feature_plic.h:273
 * \sa
 * - \ref PLIC_CompleteInterrupt
 */
__STATIC_FORCEINLINE uint32_t PLIC_ClaimInterrupt(void)
{
    uint32_t hartid = __RV_CSR_READ(CSR_MHARTID);
800008b8:	f14027f3          	csrr	a5,mhartid
800008bc:	84be                	mv	s1,a5
800008be:	87a6                	mv	a5,s1
800008c0:	fef42223          	sw	a5,-28(s0)
E:\nucleistudio_workspace\test_encry_decry\hbird_sdk\NMSIS\Core\Include/core_feature_plic.h:275
    volatile uint32_t *claim_reg = (uint32_t *)((PLIC_BASE) + PLIC_CLAIM_OFFSET + \
                    + (hartid << PLIC_CLAIM_SHIFT_PER_TARGET));
800008c4:	fe442783          	lw	a5,-28(s0)
800008c8:	00c79713          	slli	a4,a5,0xc
E:\nucleistudio_workspace\test_encry_decry\hbird_sdk\NMSIS\Core\Include/core_feature_plic.h:274
    volatile uint32_t *claim_reg = (uint32_t *)((PLIC_BASE) + PLIC_CLAIM_OFFSET + \
800008cc:	0c2007b7          	lui	a5,0xc200
800008d0:	0791                	addi	a5,a5,4
800008d2:	97ba                	add	a5,a5,a4
800008d4:	fef42023          	sw	a5,-32(s0)
E:\nucleistudio_workspace\test_encry_decry\hbird_sdk\NMSIS\Core\Include/core_feature_plic.h:277

    return (*claim_reg);
800008d8:	fe042783          	lw	a5,-32(s0)
800008dc:	439c                	lw	a5,0(a5)
core_trap_handler():
E:\nucleistudio_workspace\test_encry_decry\Debug/../hbird_sdk/SoC/hbirdv2/Common/Source/system_hbirdv2.c:328
#if defined(__PLIC_PRESENT) && __PLIC_PRESENT == 1
            irqn = PLIC_ClaimInterrupt();
800008de:	fef42423          	sw	a5,-24(s0)
E:\nucleistudio_workspace\test_encry_decry\Debug/../hbird_sdk/SoC/hbirdv2/Common/Source/system_hbirdv2.c:329
            if (irqn < __PLIC_INTNUM) {
800008e2:	fe842703          	lw	a4,-24(s0)
800008e6:	47c1                	li	a5,16
800008e8:	08e7e263          	bltu	a5,a4,8000096c <core_trap_handler+0xea>
E:\nucleistudio_workspace\test_encry_decry\Debug/../hbird_sdk/SoC/hbirdv2/Common/Source/system_hbirdv2.c:330
                int_handler = (INT_HANDLER)(SystemExtInterruptHandlers[irqn]);
800008ec:	86018713          	addi	a4,gp,-1952 # 900000c0 <SystemExtInterruptHandlers>
800008f0:	fe842783          	lw	a5,-24(s0)
800008f4:	078a                	slli	a5,a5,0x2
800008f6:	97ba                	add	a5,a5,a4
800008f8:	439c                	lw	a5,0(a5)
800008fa:	fef42623          	sw	a5,-20(s0)
E:\nucleistudio_workspace\test_encry_decry\Debug/../hbird_sdk/SoC/hbirdv2/Common/Source/system_hbirdv2.c:331
                if (int_handler != NULL) {
800008fe:	fec42783          	lw	a5,-20(s0)
80000902:	cb81                	beqz	a5,80000912 <core_trap_handler+0x90>
E:\nucleistudio_workspace\test_encry_decry\Debug/../hbird_sdk/SoC/hbirdv2/Common/Source/system_hbirdv2.c:332
                    int_handler(mcause, sp);
80000904:	fec42783          	lw	a5,-20(s0)
80000908:	fc842583          	lw	a1,-56(s0)
8000090c:	fcc42503          	lw	a0,-52(s0)
80000910:	9782                	jalr	a5
80000912:	fe842783          	lw	a5,-24(s0)
80000916:	fcf42e23          	sw	a5,-36(s0)
PLIC_CompleteInterrupt():
E:\nucleistudio_workspace\test_encry_decry\hbird_sdk\NMSIS\Core\Include/core_feature_plic.h:298
 * \sa
 * - \ref PLIC_ClaimInterrupt
 */
__STATIC_FORCEINLINE void PLIC_CompleteInterrupt(uint32_t source)
{
    uint32_t hartid = __RV_CSR_READ(CSR_MHARTID);
8000091a:	f14027f3          	csrr	a5,mhartid
8000091e:	84be                	mv	s1,a5
80000920:	87a6                	mv	a5,s1
80000922:	fcf42c23          	sw	a5,-40(s0)
E:\nucleistudio_workspace\test_encry_decry\hbird_sdk\NMSIS\Core\Include/core_feature_plic.h:300
    volatile uint32_t *complete_reg = (uint32_t *)((PLIC_BASE) + PLIC_CLAIM_OFFSET + \
                    + (hartid << PLIC_CLAIM_SHIFT_PER_TARGET));
80000926:	fd842783          	lw	a5,-40(s0)
8000092a:	00c79713          	slli	a4,a5,0xc
E:\nucleistudio_workspace\test_encry_decry\hbird_sdk\NMSIS\Core\Include/core_feature_plic.h:299
    volatile uint32_t *complete_reg = (uint32_t *)((PLIC_BASE) + PLIC_CLAIM_OFFSET + \
8000092e:	0c2007b7          	lui	a5,0xc200
80000932:	0791                	addi	a5,a5,4
80000934:	97ba                	add	a5,a5,a4
80000936:	fcf42a23          	sw	a5,-44(s0)
E:\nucleistudio_workspace\test_encry_decry\hbird_sdk\NMSIS\Core\Include/core_feature_plic.h:302

    *complete_reg = source;
8000093a:	fd442783          	lw	a5,-44(s0)
8000093e:	fdc42703          	lw	a4,-36(s0)
80000942:	c398                	sw	a4,0(a5)
E:\nucleistudio_workspace\test_encry_decry\hbird_sdk\NMSIS\Core\Include/core_feature_plic.h:303
}
80000944:	a025                	j	8000096c <core_trap_handler+0xea>
core_trap_handler():
E:\nucleistudio_workspace\test_encry_decry\Debug/../hbird_sdk/SoC/hbirdv2/Common/Source/system_hbirdv2.c:338
                }
                PLIC_CompleteInterrupt(irqn);
            }
#endif
        } else {
            int_handler = (INT_HANDLER)(SystemCoreInterruptHandlers[irqn]);
80000946:	8a418713          	addi	a4,gp,-1884 # 90000104 <SystemCoreInterruptHandlers>
8000094a:	fe842783          	lw	a5,-24(s0)
8000094e:	078a                	slli	a5,a5,0x2
80000950:	97ba                	add	a5,a5,a4
80000952:	439c                	lw	a5,0(a5)
80000954:	fef42623          	sw	a5,-20(s0)
E:\nucleistudio_workspace\test_encry_decry\Debug/../hbird_sdk/SoC/hbirdv2/Common/Source/system_hbirdv2.c:339
            if (int_handler != NULL) {
80000958:	fec42783          	lw	a5,-20(s0)
8000095c:	cb81                	beqz	a5,8000096c <core_trap_handler+0xea>
E:\nucleistudio_workspace\test_encry_decry\Debug/../hbird_sdk/SoC/hbirdv2/Common/Source/system_hbirdv2.c:340
                int_handler(mcause, sp);
8000095e:	fec42783          	lw	a5,-20(s0)
80000962:	fc842583          	lw	a1,-56(s0)
80000966:	fcc42503          	lw	a0,-52(s0)
8000096a:	9782                	jalr	a5
E:\nucleistudio_workspace\test_encry_decry\Debug/../hbird_sdk/SoC/hbirdv2/Common/Source/system_hbirdv2.c:343
            }
        }
        return 0;
8000096c:	4781                	li	a5,0
8000096e:	a039                	j	8000097c <core_trap_handler+0xfa>
E:\nucleistudio_workspace\test_encry_decry\Debug/../hbird_sdk/SoC/hbirdv2/Common/Source/system_hbirdv2.c:345
    } else {
        return core_exception_handler(mcause, sp);
80000970:	fc842583          	lw	a1,-56(s0)
80000974:	fcc42503          	lw	a0,-52(s0)
80000978:	2801                	jal	80000988 <core_exception_handler>
8000097a:	87aa                	mv	a5,a0
E:\nucleistudio_workspace\test_encry_decry\Debug/../hbird_sdk/SoC/hbirdv2/Common/Source/system_hbirdv2.c:347
    }
}
8000097c:	853e                	mv	a0,a5
8000097e:	50f2                	lw	ra,60(sp)
80000980:	5462                	lw	s0,56(sp)
80000982:	54d2                	lw	s1,52(sp)
80000984:	6121                	addi	sp,sp,64
80000986:	8082                	ret

80000988 <core_exception_handler>:
core_exception_handler():
E:\nucleistudio_workspace\test_encry_decry\Debug/../hbird_sdk/SoC/hbirdv2/Common/Source/system_hbirdv2.c:361
 *   for exception entry function, Silicon Vendor could modify the implementation.
 * - For the core_exception_handler template, we provided exception register function \ref Exception_Register_EXC
 *   which can help developer to register your exception handler for specific exception number.
 */
static uint32_t core_exception_handler(unsigned long mcause, unsigned long sp)
{
80000988:	7179                	addi	sp,sp,-48
8000098a:	d606                	sw	ra,44(sp)
8000098c:	d422                	sw	s0,40(sp)
8000098e:	1800                	addi	s0,sp,48
80000990:	fca42e23          	sw	a0,-36(s0)
80000994:	fcb42c23          	sw	a1,-40(s0)
E:\nucleistudio_workspace\test_encry_decry\Debug/../hbird_sdk/SoC/hbirdv2/Common/Source/system_hbirdv2.c:362
    uint32_t EXCn = (uint32_t)(mcause & 0X00000fff);
80000998:	fdc42703          	lw	a4,-36(s0)
8000099c:	6785                	lui	a5,0x1
8000099e:	17fd                	addi	a5,a5,-1
800009a0:	8ff9                	and	a5,a5,a4
800009a2:	fef42423          	sw	a5,-24(s0)
E:\nucleistudio_workspace\test_encry_decry\Debug/../hbird_sdk/SoC/hbirdv2/Common/Source/system_hbirdv2.c:365
    EXC_HANDLER exc_handler;

    if ((EXCn < MAX_SYSTEM_EXCEPTION_NUM) && (EXCn >= 0)) {
800009a6:	fe842703          	lw	a4,-24(s0)
800009aa:	47a9                	li	a5,10
800009ac:	00e7ec63          	bltu	a5,a4,800009c4 <core_exception_handler+0x3c>
E:\nucleistudio_workspace\test_encry_decry\Debug/../hbird_sdk/SoC/hbirdv2/Common/Source/system_hbirdv2.c:366
        exc_handler = (EXC_HANDLER)SystemExceptionHandlers[EXCn];
800009b0:	83418713          	addi	a4,gp,-1996 # 90000094 <SystemExceptionHandlers>
800009b4:	fe842783          	lw	a5,-24(s0)
800009b8:	078a                	slli	a5,a5,0x2
800009ba:	97ba                	add	a5,a5,a4
800009bc:	439c                	lw	a5,0(a5)
800009be:	fef42623          	sw	a5,-20(s0)
800009c2:	a039                	j	800009d0 <core_exception_handler+0x48>
E:\nucleistudio_workspace\test_encry_decry\Debug/../hbird_sdk/SoC/hbirdv2/Common/Source/system_hbirdv2.c:368
    } else {
        exc_handler = (EXC_HANDLER)system_default_exception_handler;
800009c4:	00000797          	auipc	a5,0x0
800009c8:	d2078793          	addi	a5,a5,-736 # 800006e4 <system_default_exception_handler>
800009cc:	fef42623          	sw	a5,-20(s0)
E:\nucleistudio_workspace\test_encry_decry\Debug/../hbird_sdk/SoC/hbirdv2/Common/Source/system_hbirdv2.c:370
    }
    if (exc_handler != NULL) {
800009d0:	fec42783          	lw	a5,-20(s0)
800009d4:	cb81                	beqz	a5,800009e4 <core_exception_handler+0x5c>
E:\nucleistudio_workspace\test_encry_decry\Debug/../hbird_sdk/SoC/hbirdv2/Common/Source/system_hbirdv2.c:371
        exc_handler(mcause, sp);
800009d6:	fec42783          	lw	a5,-20(s0)
800009da:	fd842583          	lw	a1,-40(s0)
800009de:	fdc42503          	lw	a0,-36(s0)
800009e2:	9782                	jalr	a5
E:\nucleistudio_workspace\test_encry_decry\Debug/../hbird_sdk/SoC/hbirdv2/Common/Source/system_hbirdv2.c:373
    }
    return 0;
800009e4:	4781                	li	a5,0
E:\nucleistudio_workspace\test_encry_decry\Debug/../hbird_sdk/SoC/hbirdv2/Common/Source/system_hbirdv2.c:374
}
800009e6:	853e                	mv	a0,a5
800009e8:	50b2                	lw	ra,44(sp)
800009ea:	5422                	lw	s0,40(sp)
800009ec:	6145                	addi	sp,sp,48
800009ee:	8082                	ret

800009f0 <SystemBannerPrint>:
SystemBannerPrint():
E:\nucleistudio_workspace\test_encry_decry\Debug/../hbird_sdk/SoC/hbirdv2/Common/Source/system_hbirdv2.c:379
/** @} */ /* End of Doxygen Group NMSIS_Core_ExceptionAndNMI */

/** Banner Print for HummingBird SDK */
void SystemBannerPrint(void)
{
800009f0:	1141                	addi	sp,sp,-16
800009f2:	c606                	sw	ra,12(sp)
800009f4:	c422                	sw	s0,8(sp)
800009f6:	0800                	addi	s0,sp,16
E:\nucleistudio_workspace\test_encry_decry\Debug/../hbird_sdk/SoC/hbirdv2/Common/Source/system_hbirdv2.c:381
#if defined(HBIRD_BANNER) && (HBIRD_BANNER == 1)
    printf("HummingBird SDK Build Time: %s, %s\r\n", __DATE__, __TIME__);
800009f8:	00002617          	auipc	a2,0x2
800009fc:	b4c60613          	addi	a2,a2,-1204 # 80002544 <_read_r+0x86>
80000a00:	00002597          	auipc	a1,0x2
80000a04:	b5058593          	addi	a1,a1,-1200 # 80002550 <_read_r+0x92>
80000a08:	00002517          	auipc	a0,0x2
80000a0c:	b5450513          	addi	a0,a0,-1196 # 8000255c <_read_r+0x9e>
80000a10:	025000ef          	jal	ra,80001234 <iprintf>
E:\nucleistudio_workspace\test_encry_decry\Debug/../hbird_sdk/SoC/hbirdv2/Common/Source/system_hbirdv2.c:383
#ifdef DOWNLOAD_MODE_STRING
    printf("Download Mode: %s\r\n", DOWNLOAD_MODE_STRING);
80000a14:	00002597          	auipc	a1,0x2
80000a18:	b7058593          	addi	a1,a1,-1168 # 80002584 <_read_r+0xc6>
80000a1c:	00002517          	auipc	a0,0x2
80000a20:	b6c50513          	addi	a0,a0,-1172 # 80002588 <_read_r+0xca>
80000a24:	011000ef          	jal	ra,80001234 <iprintf>
E:\nucleistudio_workspace\test_encry_decry\Debug/../hbird_sdk/SoC/hbirdv2/Common/Source/system_hbirdv2.c:385
#endif
    printf("CPU Frequency %lu Hz\r\n", SystemCoreClock);
80000a28:	0ffff797          	auipc	a5,0xffff
80000a2c:	63c78793          	addi	a5,a5,1596 # 90000064 <SystemCoreClock>
80000a30:	439c                	lw	a5,0(a5)
80000a32:	85be                	mv	a1,a5
80000a34:	00002517          	auipc	a0,0x2
80000a38:	b6850513          	addi	a0,a0,-1176 # 8000259c <_read_r+0xde>
80000a3c:	7f8000ef          	jal	ra,80001234 <iprintf>
E:\nucleistudio_workspace\test_encry_decry\Debug/../hbird_sdk/SoC/hbirdv2/Common/Source/system_hbirdv2.c:387
#endif
}
80000a40:	0001                	nop
80000a42:	40b2                	lw	ra,12(sp)
80000a44:	4422                	lw	s0,8(sp)
80000a46:	0141                	addi	sp,sp,16
80000a48:	8082                	ret

80000a4a <PLIC_Register_IRQ>:
PLIC_Register_IRQ():
E:\nucleistudio_workspace\test_encry_decry\Debug/../hbird_sdk/SoC/hbirdv2/Common/Source/system_hbirdv2.c:436
 * \return       -1 means invalid input parameter. 0 means successful.
 * \remarks
 * - This function use to configure specific plic interrupt and register its interrupt handler and enable its interrupt.
 */
int32_t PLIC_Register_IRQ(uint32_t source, uint8_t priority, void *handler)
{
80000a4a:	7139                	addi	sp,sp,-64
80000a4c:	de06                	sw	ra,60(sp)
80000a4e:	dc22                	sw	s0,56(sp)
80000a50:	da26                	sw	s1,52(sp)
80000a52:	0080                	addi	s0,sp,64
80000a54:	fca42623          	sw	a0,-52(s0)
80000a58:	87ae                	mv	a5,a1
80000a5a:	fcc42223          	sw	a2,-60(s0)
80000a5e:	fcf405a3          	sb	a5,-53(s0)
E:\nucleistudio_workspace\test_encry_decry\Debug/../hbird_sdk/SoC/hbirdv2/Common/Source/system_hbirdv2.c:437
    if ((source >= __PLIC_INTNUM)) {
80000a62:	fcc42703          	lw	a4,-52(s0)
80000a66:	47c1                	li	a5,16
80000a68:	00e7f463          	bgeu	a5,a4,80000a70 <PLIC_Register_IRQ+0x26>
E:\nucleistudio_workspace\test_encry_decry\Debug/../hbird_sdk/SoC/hbirdv2/Common/Source/system_hbirdv2.c:438
        return -1;
80000a6c:	57fd                	li	a5,-1
80000a6e:	a07d                	j	80000b1c <PLIC_Register_IRQ+0xd2>
E:\nucleistudio_workspace\test_encry_decry\Debug/../hbird_sdk/SoC/hbirdv2/Common/Source/system_hbirdv2.c:442
    }

    /* set interrupt priority */
    PLIC_SetPriority(source, priority);
80000a70:	fcb44783          	lbu	a5,-53(s0)
80000a74:	fcc42703          	lw	a4,-52(s0)
80000a78:	fee42623          	sw	a4,-20(s0)
80000a7c:	fef42423          	sw	a5,-24(s0)
PLIC_SetPriority():
E:\nucleistudio_workspace\test_encry_decry\hbird_sdk\NMSIS\Core\Include/core_feature_plic.h:235
                    + (source << PLIC_PRIORITY_SHIFT_PER_SOURCE));
80000a80:	fec42783          	lw	a5,-20(s0)
80000a84:	00279713          	slli	a4,a5,0x2
E:\nucleistudio_workspace\test_encry_decry\hbird_sdk\NMSIS\Core\Include/core_feature_plic.h:234
    volatile uint32_t *priority_reg = (uint32_t *)((PLIC_BASE) + PLIC_PRIORITY_OFFSET + \
80000a88:	0c0007b7          	lui	a5,0xc000
80000a8c:	97ba                	add	a5,a5,a4
80000a8e:	fef42223          	sw	a5,-28(s0)
E:\nucleistudio_workspace\test_encry_decry\hbird_sdk\NMSIS\Core\Include/core_feature_plic.h:237
    *priority_reg = priority;
80000a92:	fe442783          	lw	a5,-28(s0)
80000a96:	fe842703          	lw	a4,-24(s0)
80000a9a:	c398                	sw	a4,0(a5)
E:\nucleistudio_workspace\test_encry_decry\hbird_sdk\NMSIS\Core\Include/core_feature_plic.h:238
}
80000a9c:	0001                	nop
PLIC_Register_IRQ():
E:\nucleistudio_workspace\test_encry_decry\Debug/../hbird_sdk/SoC/hbirdv2/Common/Source/system_hbirdv2.c:443
    if (handler != NULL) {
80000a9e:	fc442783          	lw	a5,-60(s0)
80000aa2:	c799                	beqz	a5,80000ab0 <PLIC_Register_IRQ+0x66>
E:\nucleistudio_workspace\test_encry_decry\Debug/../hbird_sdk/SoC/hbirdv2/Common/Source/system_hbirdv2.c:445
        /* register interrupt handler entry to external handlers */
        Interrupt_Register_ExtIRQ(source, (unsigned long)handler);
80000aa4:	fc442783          	lw	a5,-60(s0)
80000aa8:	85be                	mv	a1,a5
80000aaa:	fcc42503          	lw	a0,-52(s0)
80000aae:	334d                	jal	80000850 <Interrupt_Register_ExtIRQ>
80000ab0:	fcc42783          	lw	a5,-52(s0)
80000ab4:	fef42023          	sw	a5,-32(s0)
PLIC_EnableInterrupt():
E:\nucleistudio_workspace\test_encry_decry\hbird_sdk\NMSIS\Core\Include/core_feature_plic.h:171
    uint32_t hartid = __RV_CSR_READ(CSR_MHARTID);
80000ab8:	f14027f3          	csrr	a5,mhartid
80000abc:	84be                	mv	s1,a5
80000abe:	87a6                	mv	a5,s1
80000ac0:	fcf42e23          	sw	a5,-36(s0)
E:\nucleistudio_workspace\test_encry_decry\hbird_sdk\NMSIS\Core\Include/core_feature_plic.h:173
                    (hartid << PLIC_ENABLE_SHIFT_PER_TARGET) + (source >> 5) * 4);
80000ac4:	fdc42783          	lw	a5,-36(s0)
80000ac8:	00779713          	slli	a4,a5,0x7
80000acc:	fe042783          	lw	a5,-32(s0)
80000ad0:	8395                	srli	a5,a5,0x5
80000ad2:	078a                	slli	a5,a5,0x2
80000ad4:	973e                	add	a4,a4,a5
80000ad6:	0c0027b7          	lui	a5,0xc002
80000ada:	97ba                	add	a5,a5,a4
E:\nucleistudio_workspace\test_encry_decry\hbird_sdk\NMSIS\Core\Include/core_feature_plic.h:172
    volatile uint32_t *enable_reg = (uint32_t *)((PLIC_BASE) + PLIC_ENABLE_OFFSET + \
80000adc:	fcf42c23          	sw	a5,-40(s0)
E:\nucleistudio_workspace\test_encry_decry\hbird_sdk\NMSIS\Core\Include/core_feature_plic.h:175
    uint32_t current = *enable_reg;
80000ae0:	fd842783          	lw	a5,-40(s0)
80000ae4:	439c                	lw	a5,0(a5)
80000ae6:	fcf42a23          	sw	a5,-44(s0)
E:\nucleistudio_workspace\test_encry_decry\hbird_sdk\NMSIS\Core\Include/core_feature_plic.h:176
    current = current | (1<<(source&0x1F));
80000aea:	fe042783          	lw	a5,-32(s0)
80000aee:	8bfd                	andi	a5,a5,31
80000af0:	4705                	li	a4,1
80000af2:	00f717b3          	sll	a5,a4,a5
80000af6:	873e                	mv	a4,a5
80000af8:	fd442783          	lw	a5,-44(s0)
80000afc:	8fd9                	or	a5,a5,a4
80000afe:	fcf42a23          	sw	a5,-44(s0)
E:\nucleistudio_workspace\test_encry_decry\hbird_sdk\NMSIS\Core\Include/core_feature_plic.h:177
    *enable_reg = current;
80000b02:	fd842783          	lw	a5,-40(s0)
80000b06:	fd442703          	lw	a4,-44(s0)
80000b0a:	c398                	sw	a4,0(a5)
E:\nucleistudio_workspace\test_encry_decry\hbird_sdk\NMSIS\Core\Include/core_feature_plic.h:178
}
80000b0c:	0001                	nop
__enable_ext_irq():
E:\nucleistudio_workspace\test_encry_decry\hbird_sdk\NMSIS\Core\Include/core_feature_base.h:377
 * \remarks
 *          Can only be executed in Privileged modes.
 */
__STATIC_FORCEINLINE void __enable_ext_irq(void)
{
    __RV_CSR_SET(CSR_MIE, MIE_MEIE);
80000b0e:	6785                	lui	a5,0x1
80000b10:	80078493          	addi	s1,a5,-2048 # 800 <__stack_size>
80000b14:	3044a073          	csrs	mie,s1
E:\nucleistudio_workspace\test_encry_decry\hbird_sdk\NMSIS\Core\Include/core_feature_base.h:378
}
80000b18:	0001                	nop
PLIC_Register_IRQ():
E:\nucleistudio_workspace\test_encry_decry\Debug/../hbird_sdk/SoC/hbirdv2/Common/Source/system_hbirdv2.c:450
    }
    /* enable interrupt */
    PLIC_EnableInterrupt(source);
    __enable_ext_irq();
    return 0;
80000b1a:	4781                	li	a5,0
E:\nucleistudio_workspace\test_encry_decry\Debug/../hbird_sdk/SoC/hbirdv2/Common/Source/system_hbirdv2.c:451
}
80000b1c:	853e                	mv	a0,a5
80000b1e:	50f2                	lw	ra,60(sp)
80000b20:	5462                	lw	s0,56(sp)
80000b22:	54d2                	lw	s1,52(sp)
80000b24:	6121                	addi	sp,sp,64
80000b26:	8082                	ret

80000b28 <_premain_init>:
_premain_init():
E:\nucleistudio_workspace\test_encry_decry\Debug/../hbird_sdk/SoC/hbirdv2/Common/Source/system_hbirdv2.c:464
 * For RISC-V gnu toolchain, _init function might not be called
 * by __libc_init_array function, so we defined a new function
 * to do initialization
 */
void _premain_init(void)
{
80000b28:	7139                	addi	sp,sp,-64
80000b2a:	de06                	sw	ra,60(sp)
80000b2c:	dc22                	sw	s0,56(sp)
80000b2e:	da26                	sw	s1,52(sp)
80000b30:	0080                	addi	s0,sp,64
E:\nucleistudio_workspace\test_encry_decry\Debug/../hbird_sdk/SoC/hbirdv2/Common/Source/system_hbirdv2.c:466
    /* TODO: Add your own initialization code here, called before main */
    SystemCoreClock = get_cpu_freq();
80000b32:	36bd                	jal	800006a0 <get_cpu_freq>
80000b34:	872a                	mv	a4,a0
80000b36:	0ffff797          	auipc	a5,0xffff
80000b3a:	52e78793          	addi	a5,a5,1326 # 90000064 <SystemCoreClock>
80000b3e:	c398                	sw	a4,0(a5)
E:\nucleistudio_workspace\test_encry_decry\Debug/../hbird_sdk/SoC/hbirdv2/Common/Source/system_hbirdv2.c:468
#if ! defined(SIMULATION_SPIKE) && ! defined(SIMULATION_XLSPIKE)
    gpio_iof_config(GPIOA, IOF_UART_MASK);
80000b40:	000305b7          	lui	a1,0x30
80000b44:	10012537          	lui	a0,0x10012
80000b48:	3a01                	jal	80000458 <gpio_iof_config>
E:\nucleistudio_workspace\test_encry_decry\Debug/../hbird_sdk/SoC/hbirdv2/Common/Source/system_hbirdv2.c:469
    uart_init(SOC_DEBUG_UART, 115200);
80000b4a:	67f1                	lui	a5,0x1c
80000b4c:	20078593          	addi	a1,a5,512 # 1c200 <__stack_size+0x1ba00>
80000b50:	10013537          	lui	a0,0x10013
80000b54:	3281                	jal	80000494 <uart_init>
E:\nucleistudio_workspace\test_encry_decry\Debug/../hbird_sdk/SoC/hbirdv2/Common/Source/system_hbirdv2.c:472
#endif
    /* Display banner after UART initialized */
    SystemBannerPrint();
80000b56:	3d69                	jal	800009f0 <SystemBannerPrint>
E:\nucleistudio_workspace\test_encry_decry\Debug/../hbird_sdk/SoC/hbirdv2/Common/Source/system_hbirdv2.c:474
    /* Initialize exception default handlers */
    Exception_Init();
80000b58:	31a1                	jal	800007a0 <Exception_Init>
E:\nucleistudio_workspace\test_encry_decry\Debug/../hbird_sdk/SoC/hbirdv2/Common/Source/system_hbirdv2.c:476
    /* Initialize Interrupt default handlers */
    Interrupt_Init();
80000b5a:	3159                	jal	800007e0 <Interrupt_Init>
80000b5c:	47c5                	li	a5,17
80000b5e:	fef42623          	sw	a5,-20(s0)
PLIC_Init():
E:\nucleistudio_workspace\test_encry_decry\hbird_sdk\NMSIS\Core\Include/core_feature_plic.h:318
 */
__STATIC_FORCEINLINE void PLIC_Init(uint32_t num_sources)
{
    uint32_t i;

    for (i = 0; i < num_sources; i ++) {
80000b62:	fe042423          	sw	zero,-24(s0)
80000b66:	a861                	j	80000bfe <_premain_init+0xd6>
80000b68:	fe842783          	lw	a5,-24(s0)
80000b6c:	fef42223          	sw	a5,-28(s0)
PLIC_DisableInterrupt():
E:\nucleistudio_workspace\test_encry_decry\hbird_sdk\NMSIS\Core\Include/core_feature_plic.h:191
    uint32_t hartid = __RV_CSR_READ(CSR_MHARTID);
80000b70:	f14027f3          	csrr	a5,mhartid
80000b74:	84be                	mv	s1,a5
80000b76:	87a6                	mv	a5,s1
80000b78:	fef42023          	sw	a5,-32(s0)
E:\nucleistudio_workspace\test_encry_decry\hbird_sdk\NMSIS\Core\Include/core_feature_plic.h:193
                    (hartid << PLIC_ENABLE_SHIFT_PER_TARGET) + (source >> 5) * 4);
80000b7c:	fe042783          	lw	a5,-32(s0)
80000b80:	00779713          	slli	a4,a5,0x7
80000b84:	fe442783          	lw	a5,-28(s0)
80000b88:	8395                	srli	a5,a5,0x5
80000b8a:	078a                	slli	a5,a5,0x2
80000b8c:	973e                	add	a4,a4,a5
80000b8e:	0c0027b7          	lui	a5,0xc002
80000b92:	97ba                	add	a5,a5,a4
E:\nucleistudio_workspace\test_encry_decry\hbird_sdk\NMSIS\Core\Include/core_feature_plic.h:192
    volatile uint32_t *enable_reg = (uint32_t *)((PLIC_BASE) + PLIC_ENABLE_OFFSET + \
80000b94:	fcf42e23          	sw	a5,-36(s0)
E:\nucleistudio_workspace\test_encry_decry\hbird_sdk\NMSIS\Core\Include/core_feature_plic.h:195
    uint32_t current = *enable_reg;
80000b98:	fdc42783          	lw	a5,-36(s0)
80000b9c:	439c                	lw	a5,0(a5)
80000b9e:	fcf42c23          	sw	a5,-40(s0)
E:\nucleistudio_workspace\test_encry_decry\hbird_sdk\NMSIS\Core\Include/core_feature_plic.h:196
    current = current & (~(1<<(source&0x1F)));
80000ba2:	fe442783          	lw	a5,-28(s0)
80000ba6:	8bfd                	andi	a5,a5,31
80000ba8:	4705                	li	a4,1
80000baa:	00f717b3          	sll	a5,a4,a5
80000bae:	fff7c793          	not	a5,a5
80000bb2:	873e                	mv	a4,a5
80000bb4:	fd842783          	lw	a5,-40(s0)
80000bb8:	8ff9                	and	a5,a5,a4
80000bba:	fcf42c23          	sw	a5,-40(s0)
E:\nucleistudio_workspace\test_encry_decry\hbird_sdk\NMSIS\Core\Include/core_feature_plic.h:197
    *enable_reg = current;
80000bbe:	fdc42783          	lw	a5,-36(s0)
80000bc2:	fd842703          	lw	a4,-40(s0)
80000bc6:	c398                	sw	a4,0(a5)
E:\nucleistudio_workspace\test_encry_decry\hbird_sdk\NMSIS\Core\Include/core_feature_plic.h:198
}
80000bc8:	0001                	nop
80000bca:	fe842783          	lw	a5,-24(s0)
80000bce:	fcf42a23          	sw	a5,-44(s0)
80000bd2:	fc042823          	sw	zero,-48(s0)
PLIC_SetPriority():
E:\nucleistudio_workspace\test_encry_decry\hbird_sdk\NMSIS\Core\Include/core_feature_plic.h:235
                    + (source << PLIC_PRIORITY_SHIFT_PER_SOURCE));
80000bd6:	fd442783          	lw	a5,-44(s0)
80000bda:	00279713          	slli	a4,a5,0x2
E:\nucleistudio_workspace\test_encry_decry\hbird_sdk\NMSIS\Core\Include/core_feature_plic.h:234
    volatile uint32_t *priority_reg = (uint32_t *)((PLIC_BASE) + PLIC_PRIORITY_OFFSET + \
80000bde:	0c0007b7          	lui	a5,0xc000
80000be2:	97ba                	add	a5,a5,a4
80000be4:	fcf42623          	sw	a5,-52(s0)
E:\nucleistudio_workspace\test_encry_decry\hbird_sdk\NMSIS\Core\Include/core_feature_plic.h:237
    *priority_reg = priority;
80000be8:	fcc42783          	lw	a5,-52(s0)
80000bec:	fd042703          	lw	a4,-48(s0)
80000bf0:	c398                	sw	a4,0(a5)
E:\nucleistudio_workspace\test_encry_decry\hbird_sdk\NMSIS\Core\Include/core_feature_plic.h:238
}
80000bf2:	0001                	nop
PLIC_Init():
E:\nucleistudio_workspace\test_encry_decry\hbird_sdk\NMSIS\Core\Include/core_feature_plic.h:318
    for (i = 0; i < num_sources; i ++) {
80000bf4:	fe842783          	lw	a5,-24(s0)
80000bf8:	0785                	addi	a5,a5,1
80000bfa:	fef42423          	sw	a5,-24(s0)
80000bfe:	fec42703          	lw	a4,-20(s0)
80000c02:	fe842783          	lw	a5,-24(s0)
80000c06:	f6e7e1e3          	bltu	a5,a4,80000b68 <_premain_init+0x40>
80000c0a:	fc042423          	sw	zero,-56(s0)
PLIC_SetThreshold():
E:\nucleistudio_workspace\test_encry_decry\hbird_sdk\NMSIS\Core\Include/core_feature_plic.h:135
    uint32_t hartid = __RV_CSR_READ(CSR_MHARTID);
80000c0e:	f14027f3          	csrr	a5,mhartid
80000c12:	84be                	mv	s1,a5
80000c14:	87a6                	mv	a5,s1
80000c16:	fcf42223          	sw	a5,-60(s0)
E:\nucleistudio_workspace\test_encry_decry\hbird_sdk\NMSIS\Core\Include/core_feature_plic.h:137
                    PLIC_THRESHOLD_OFFSET + (hartid << PLIC_THRESHOLD_SHIFT_PER_TARGET));
80000c1a:	fc442783          	lw	a5,-60(s0)
80000c1e:	00c79713          	slli	a4,a5,0xc
80000c22:	0c2007b7          	lui	a5,0xc200
80000c26:	97ba                	add	a5,a5,a4
E:\nucleistudio_workspace\test_encry_decry\hbird_sdk\NMSIS\Core\Include/core_feature_plic.h:136
    volatile uint32_t *thresh_reg = (uint32_t *)((PLIC_BASE) + \
80000c28:	fcf42023          	sw	a5,-64(s0)
E:\nucleistudio_workspace\test_encry_decry\hbird_sdk\NMSIS\Core\Include/core_feature_plic.h:139
    *thresh_reg = thresh;
80000c2c:	fc042783          	lw	a5,-64(s0)
80000c30:	fc842703          	lw	a4,-56(s0)
80000c34:	c398                	sw	a4,0(a5)
E:\nucleistudio_workspace\test_encry_decry\hbird_sdk\NMSIS\Core\Include/core_feature_plic.h:140
}
80000c36:	0001                	nop
PLIC_Init():
E:\nucleistudio_workspace\test_encry_decry\hbird_sdk\NMSIS\Core\Include/core_feature_plic.h:323
        PLIC_DisableInterrupt(i);
        PLIC_SetPriority(i, 0);
    }
    PLIC_SetThreshold(0);
}
80000c38:	0001                	nop
_premain_init():
E:\nucleistudio_workspace\test_encry_decry\Debug/../hbird_sdk/SoC/hbirdv2/Common/Source/system_hbirdv2.c:481
#if defined(__PLIC_PRESENT) && __PLIC_PRESENT == 1
    /* PLIC initilization */
    PLIC_Init(__PLIC_INTNUM);
#endif
}
80000c3a:	0001                	nop
80000c3c:	50f2                	lw	ra,60(sp)
80000c3e:	5462                	lw	s0,56(sp)
80000c40:	54d2                	lw	s1,52(sp)
80000c42:	6121                	addi	sp,sp,64
80000c44:	8082                	ret

80000c46 <_postmain_fini>:
_postmain_fini():
E:\nucleistudio_workspace\test_encry_decry\Debug/../hbird_sdk/SoC/hbirdv2/Common/Source/system_hbirdv2.c:492
 * For RISC-V gnu toolchain, _fini function might not be called
 * by __libc_fini_array function, so we defined a new function
 * to do initialization
 */
void _postmain_fini(int status)
{
80000c46:	1101                	addi	sp,sp,-32
80000c48:	ce22                	sw	s0,28(sp)
80000c4a:	1000                	addi	s0,sp,32
80000c4c:	fea42623          	sw	a0,-20(s0)
E:\nucleistudio_workspace\test_encry_decry\Debug/../hbird_sdk/SoC/hbirdv2/Common/Source/system_hbirdv2.c:507
#ifdef SIMULATION_RTL
extern void rtlsim_exit(int status);
    rtlsim_exit(status);
#endif

}
80000c50:	0001                	nop
80000c52:	4472                	lw	s0,28(sp)
80000c54:	6105                	addi	sp,sp,32
80000c56:	8082                	ret

80000c58 <_init>:
_init():
E:\nucleistudio_workspace\test_encry_decry\Debug/../hbird_sdk/SoC/hbirdv2/Common/Source/system_hbirdv2.c:519
 * error init.c:(.text.__libc_init_array+0x26): undefined reference to `_init'
 * \note
 * Please use \ref _premain_init function now
 */
void _init(void)
{
80000c58:	1141                	addi	sp,sp,-16
80000c5a:	c622                	sw	s0,12(sp)
80000c5c:	0800                	addi	s0,sp,16
E:\nucleistudio_workspace\test_encry_decry\Debug/../hbird_sdk/SoC/hbirdv2/Common/Source/system_hbirdv2.c:521
    /* Don't put any code here, please use _premain_init now */
}
80000c5e:	0001                	nop
80000c60:	4432                	lw	s0,12(sp)
80000c62:	0141                	addi	sp,sp,16
80000c64:	8082                	ret

80000c66 <_fini>:
_fini():
E:\nucleistudio_workspace\test_encry_decry\Debug/../hbird_sdk/SoC/hbirdv2/Common/Source/system_hbirdv2.c:533
 * error fini.c:(.text.__libc_fini_array+0x28): undefined reference to `_fini'
 * \note
 * Please use \ref _postmain_fini function now
 */
void _fini(void)
{
80000c66:	1141                	addi	sp,sp,-16
80000c68:	c622                	sw	s0,12(sp)
80000c6a:	0800                	addi	s0,sp,16
E:\nucleistudio_workspace\test_encry_decry\Debug/../hbird_sdk/SoC/hbirdv2/Common/Source/system_hbirdv2.c:536
    /* Don't put any code here, please use _postmain_fini now */

}
80000c6c:	0001                	nop
80000c6e:	4432                	lw	s0,12(sp)
80000c70:	0141                	addi	sp,sp,16
80000c72:	8082                	ret

80000c74 <GPIO_interrupt_handler>:
GPIO_interrupt_handler():
E:\nucleistudio_workspace\test_encry_decry\Debug/../application/main.c:17
static volatile uint32_t value2 = 2;
static volatile uint32_t value1 = 1;
static volatile uint32_t value0 = 0;
static volatile int flag = 0;

void GPIO_interrupt_handler(void){
80000c74:	1141                	addi	sp,sp,-16
80000c76:	c622                	sw	s0,12(sp)
80000c78:	0800                	addi	s0,sp,16
E:\nucleistudio_workspace\test_encry_decry\Debug/../application/main.c:19

    flag = 1; //标记位，标记已经进入中断函数
80000c7a:	82018793          	addi	a5,gp,-2016 # 90000080 <flag>
80000c7e:	4705                	li	a4,1
80000c80:	c398                	sw	a4,0(a5)
E:\nucleistudio_workspace\test_encry_decry\Debug/../application/main.c:20
}
80000c82:	0001                	nop
80000c84:	4432                	lw	s0,12(sp)
80000c86:	0141                	addi	sp,sp,16
80000c88:	8082                	ret

80000c8a <main>:
main():
E:\nucleistudio_workspace\test_encry_decry\Debug/../application/main.c:23

int main(void)
{
80000c8a:	1101                	addi	sp,sp,-32
80000c8c:	ce06                	sw	ra,28(sp)
80000c8e:	cc22                	sw	s0,24(sp)
80000c90:	1000                	addi	s0,sp,32
E:\nucleistudio_workspace\test_encry_decry\Debug/../application/main.c:24
	int test = 0;
80000c92:	fe042623          	sw	zero,-20(s0)
E:\nucleistudio_workspace\test_encry_decry\Debug/../application/main.c:26
	int32_t Status;
	printf("Initializing interrupt\n\r");
80000c96:	00002517          	auipc	a0,0x2
80000c9a:	91e50513          	addi	a0,a0,-1762 # 800025b4 <_read_r+0xf6>
80000c9e:	2b59                	jal	80001234 <iprintf>
__enable_irq():
E:\nucleistudio_workspace\test_encry_decry\hbird_sdk\NMSIS\Core\Include/core_feature_base.h:355
    __RV_CSR_SET(CSR_MSTATUS, MSTATUS_MIE);
80000ca0:	40a1                	li	ra,8
80000ca2:	3000a073          	csrs	mstatus,ra
E:\nucleistudio_workspace\test_encry_decry\hbird_sdk\NMSIS\Core\Include/core_feature_base.h:356
}
80000ca6:	0001                	nop
main():
E:\nucleistudio_workspace\test_encry_decry\Debug/../application/main.c:28
	__enable_irq();
	Status = PLIC_Register_IRQ(PLIC_GPIOA_IRQn, 1, GPIO_interrupt_handler); //开启中断服务程序
80000ca8:	00000617          	auipc	a2,0x0
80000cac:	fcc60613          	addi	a2,a2,-52 # 80000c74 <GPIO_interrupt_handler>
80000cb0:	4585                	li	a1,1
80000cb2:	453d                	li	a0,15
80000cb4:	3b59                	jal	80000a4a <PLIC_Register_IRQ>
80000cb6:	fea42423          	sw	a0,-24(s0)
E:\nucleistudio_workspace\test_encry_decry\Debug/../application/main.c:29
	if(Status == 0)
80000cba:	fe842783          	lw	a5,-24(s0)
80000cbe:	e799                	bnez	a5,80000ccc <main+0x42>
E:\nucleistudio_workspace\test_encry_decry\Debug/../application/main.c:30
		printf("Initializing interrupt successful\n\r");
80000cc0:	00002517          	auipc	a0,0x2
80000cc4:	91050513          	addi	a0,a0,-1776 # 800025d0 <_read_r+0x112>
80000cc8:	23b5                	jal	80001234 <iprintf>
80000cca:	a031                	j	80000cd6 <main+0x4c>
E:\nucleistudio_workspace\test_encry_decry\Debug/../application/main.c:32
	else
		printf("failed\n\r");
80000ccc:	00002517          	auipc	a0,0x2
80000cd0:	92850513          	addi	a0,a0,-1752 # 800025f4 <_read_r+0x136>
80000cd4:	2385                	jal	80001234 <iprintf>
E:\nucleistudio_workspace\test_encry_decry\Debug/../application/main.c:34

	printf("%X",value0); //这行代码可以直接显示value0的值
80000cd6:	81c18793          	addi	a5,gp,-2020 # 9000007c <value0>
80000cda:	439c                	lw	a5,0(a5)
80000cdc:	85be                	mv	a1,a5
80000cde:	00002517          	auipc	a0,0x2
80000ce2:	92250513          	addi	a0,a0,-1758 # 80002600 <_read_r+0x142>
80000ce6:	23b9                	jal	80001234 <iprintf>
E:\nucleistudio_workspace\test_encry_decry\Debug/../application/main.c:36

	printf("Sending plain text and key\n\r");
80000ce8:	00002517          	auipc	a0,0x2
80000cec:	91c50513          	addi	a0,a0,-1764 # 80002604 <_read_r+0x146>
80000cf0:	2391                	jal	80001234 <iprintf>
E:\nucleistudio_workspace\test_encry_decry\Debug/../application/main.c:37
	plainTextSend(0x228013b7,0x45464748,FirstRound); //验证DES解密0x00
80000cf2:	4605                	li	a2,1
80000cf4:	454647b7          	lui	a5,0x45464
80000cf8:	74878593          	addi	a1,a5,1864 # 45464748 <__stack_size+0x45463f48>
80000cfc:	228017b7          	lui	a5,0x22801
80000d00:	3b778513          	addi	a0,a5,951 # 228013b7 <__stack_size+0x22800bb7>
80000d04:	e00ff0ef          	jal	ra,80000304 <plainTextSend>
E:\nucleistudio_workspace\test_encry_decry\Debug/../application/main.c:38
	plainTextSend(0xD46EB4C9,0x41424344,SecondRound);
80000d08:	4609                	li	a2,2
80000d0a:	414247b7          	lui	a5,0x41424
80000d0e:	34478593          	addi	a1,a5,836 # 41424344 <__stack_size+0x41423b44>
80000d12:	d46eb7b7          	lui	a5,0xd46eb
80000d16:	4c978513          	addi	a0,a5,1225 # d46eb4c9 <_sp+0x446db4c9>
80000d1a:	deaff0ef          	jal	ra,80000304 <plainTextSend>
E:\nucleistudio_workspace\test_encry_decry\Debug/../application/main.c:39
	plainTextSend(0x00000000,0x00000000,ThirdRound);
80000d1e:	460d                	li	a2,3
80000d20:	4581                	li	a1,0
80000d22:	4501                	li	a0,0
80000d24:	de0ff0ef          	jal	ra,80000304 <plainTextSend>
E:\nucleistudio_workspace\test_encry_decry\Debug/../application/main.c:40
	plainTextSend(0x00000000,0x00000000,ForthRound);
80000d28:	4611                	li	a2,4
80000d2a:	4581                	li	a1,0
80000d2c:	4501                	li	a0,0
80000d2e:	dd6ff0ef          	jal	ra,80000304 <plainTextSend>
E:\nucleistudio_workspace\test_encry_decry\Debug/../application/main.c:59
	//plainTextSend(0x4D4E4F50,0x4D4E4F50,FirstRound); //验证AES加密0x03
	//plainTextSend(0x494A4B4C,0x494A4B4C,SecondRound);
	//plainTextSend(0x45464748,0x45464748,ThirdRound);
	//plainTextSend(0x41424344,0x41424344,ForthRound);

	printf("Sending text Successfully\n\r");
80000d32:	00002517          	auipc	a0,0x2
80000d36:	8f250513          	addi	a0,a0,-1806 # 80002624 <_read_r+0x166>
80000d3a:	29ed                	jal	80001234 <iprintf>
E:\nucleistudio_workspace\test_encry_decry\Debug/../application/main.c:62


	printf("Modify Mode\n\r");
80000d3c:	00002517          	auipc	a0,0x2
80000d40:	90450513          	addi	a0,a0,-1788 # 80002640 <_read_r+0x182>
80000d44:	29c5                	jal	80001234 <iprintf>
E:\nucleistudio_workspace\test_encry_decry\Debug/../application/main.c:63
	process_mode(0x00000000); //选择加密方式为0-DES decry 1-DES encry 2-AES decry 3-AES encry
80000d46:	4501                	li	a0,0
80000d48:	e6aff0ef          	jal	ra,800003b2 <process_mode>
E:\nucleistudio_workspace\test_encry_decry\Debug/../application/main.c:64
	printf("Modified\n\r");
80000d4c:	00002517          	auipc	a0,0x2
80000d50:	90450513          	addi	a0,a0,-1788 # 80002650 <_read_r+0x192>
80000d54:	21c5                	jal	80001234 <iprintf>
E:\nucleistudio_workspace\test_encry_decry\Debug/../application/main.c:67


	printf("Enabling\n\r");
80000d56:	00002517          	auipc	a0,0x2
80000d5a:	90650513          	addi	a0,a0,-1786 # 8000265c <_read_r+0x19e>
80000d5e:	29d9                	jal	80001234 <iprintf>
E:\nucleistudio_workspace\test_encry_decry\Debug/../application/main.c:68
	process_enable(); //使能开始工作
80000d60:	e3cff0ef          	jal	ra,8000039c <process_enable>
E:\nucleistudio_workspace\test_encry_decry\Debug/../application/main.c:69
    printf("Enabled\n\r");
80000d64:	00002517          	auipc	a0,0x2
80000d68:	90450513          	addi	a0,a0,-1788 # 80002668 <_read_r+0x1aa>
80000d6c:	21e1                	jal	80001234 <iprintf>
E:\nucleistudio_workspace\test_encry_decry\Debug/../application/main.c:71
    while(1){
        if(test == 0) {
80000d6e:	fec42783          	lw	a5,-20(s0)
80000d72:	eb99                	bnez	a5,80000d88 <main+0xfe>
E:\nucleistudio_workspace\test_encry_decry\Debug/../application/main.c:72
        	printf("Enter while loop\n\r");
80000d74:	00002517          	auipc	a0,0x2
80000d78:	90050513          	addi	a0,a0,-1792 # 80002674 <_read_r+0x1b6>
80000d7c:	2965                	jal	80001234 <iprintf>
E:\nucleistudio_workspace\test_encry_decry\Debug/../application/main.c:73
        	test++;
80000d7e:	fec42783          	lw	a5,-20(s0)
80000d82:	0785                	addi	a5,a5,1
80000d84:	fef42623          	sw	a5,-20(s0)
E:\nucleistudio_workspace\test_encry_decry\Debug/../application/main.c:76
        }

    	if(flag == 1) {
80000d88:	82018793          	addi	a5,gp,-2016 # 90000080 <flag>
80000d8c:	4398                	lw	a4,0(a5)
80000d8e:	4785                	li	a5,1
80000d90:	fcf71fe3          	bne	a4,a5,80000d6e <main+0xe4>
E:\nucleistudio_workspace\test_encry_decry\Debug/../application/main.c:77
    		printf("Retrieve data success\n\r");
80000d94:	00002517          	auipc	a0,0x2
80000d98:	8f450513          	addi	a0,a0,-1804 # 80002688 <_read_r+0x1ca>
80000d9c:	2961                	jal	80001234 <iprintf>
E:\nucleistudio_workspace\test_encry_decry\Debug/../application/main.c:79

    		value3 = retrive_result(ForthRound);//反序取值，然后通过串口发送数据
80000d9e:	4511                	li	a0,4
80000da0:	e44ff0ef          	jal	ra,800003e4 <retrive_result>
80000da4:	872a                	mv	a4,a0
80000da6:	80818793          	addi	a5,gp,-2040 # 90000068 <value3>
80000daa:	c398                	sw	a4,0(a5)
E:\nucleistudio_workspace\test_encry_decry\Debug/../application/main.c:81

    		value2 = retrive_result(ThirdRound);
80000dac:	450d                	li	a0,3
80000dae:	e36ff0ef          	jal	ra,800003e4 <retrive_result>
80000db2:	872a                	mv	a4,a0
80000db4:	80c18793          	addi	a5,gp,-2036 # 9000006c <value2>
80000db8:	c398                	sw	a4,0(a5)
E:\nucleistudio_workspace\test_encry_decry\Debug/../application/main.c:83

    	    value1 = retrive_result(SecondRound);
80000dba:	4509                	li	a0,2
80000dbc:	e28ff0ef          	jal	ra,800003e4 <retrive_result>
80000dc0:	872a                	mv	a4,a0
80000dc2:	81018793          	addi	a5,gp,-2032 # 90000070 <value1>
80000dc6:	c398                	sw	a4,0(a5)
E:\nucleistudio_workspace\test_encry_decry\Debug/../application/main.c:85

    	    value0 = retrive_result(FirstRound);
80000dc8:	4505                	li	a0,1
80000dca:	e1aff0ef          	jal	ra,800003e4 <retrive_result>
80000dce:	872a                	mv	a4,a0
80000dd0:	81c18793          	addi	a5,gp,-2020 # 9000007c <value0>
80000dd4:	c398                	sw	a4,0(a5)
E:\nucleistudio_workspace\test_encry_decry\Debug/../application/main.c:87

    	    process_stop(); //停止加密
80000dd6:	df8ff0ef          	jal	ra,800003ce <process_stop>
E:\nucleistudio_workspace\test_encry_decry\Debug/../application/main.c:90


    	    printf("\n\rThe decryption of DES:\n\r"); //DES的解密 0X00
80000dda:	00002517          	auipc	a0,0x2
80000dde:	8c650513          	addi	a0,a0,-1850 # 800026a0 <_read_r+0x1e2>
80000de2:	2989                	jal	80001234 <iprintf>
E:\nucleistudio_workspace\test_encry_decry\Debug/../application/main.c:97
			//printf("\n\rThe encryption of DES:\n\r"); //DES的加密 0X01

			//printf("\n\rThe decryption of AES:\n\r"); //AES的解密 0X02

			//printf("\n\rThe encryption of AES:\n\r"); //AES的加密 0X03
    	    printf("\t%X\n",value3);
80000de4:	80818793          	addi	a5,gp,-2040 # 90000068 <value3>
80000de8:	439c                	lw	a5,0(a5)
80000dea:	85be                	mv	a1,a5
80000dec:	00002517          	auipc	a0,0x2
80000df0:	8d050513          	addi	a0,a0,-1840 # 800026bc <_read_r+0x1fe>
80000df4:	2181                	jal	80001234 <iprintf>
E:\nucleistudio_workspace\test_encry_decry\Debug/../application/main.c:98
    	    printf("\t%X\n",value2);
80000df6:	80c18793          	addi	a5,gp,-2036 # 9000006c <value2>
80000dfa:	439c                	lw	a5,0(a5)
80000dfc:	85be                	mv	a1,a5
80000dfe:	00002517          	auipc	a0,0x2
80000e02:	8be50513          	addi	a0,a0,-1858 # 800026bc <_read_r+0x1fe>
80000e06:	213d                	jal	80001234 <iprintf>
E:\nucleistudio_workspace\test_encry_decry\Debug/../application/main.c:99
    	    printf("\t%X\n",value1);
80000e08:	81018793          	addi	a5,gp,-2032 # 90000070 <value1>
80000e0c:	439c                	lw	a5,0(a5)
80000e0e:	85be                	mv	a1,a5
80000e10:	00002517          	auipc	a0,0x2
80000e14:	8ac50513          	addi	a0,a0,-1876 # 800026bc <_read_r+0x1fe>
80000e18:	2931                	jal	80001234 <iprintf>
E:\nucleistudio_workspace\test_encry_decry\Debug/../application/main.c:100
    	    printf("\t%X\n",value0);
80000e1a:	81c18793          	addi	a5,gp,-2020 # 9000007c <value0>
80000e1e:	439c                	lw	a5,0(a5)
80000e20:	85be                	mv	a1,a5
80000e22:	00002517          	auipc	a0,0x2
80000e26:	89a50513          	addi	a0,a0,-1894 # 800026bc <_read_r+0x1fe>
80000e2a:	2129                	jal	80001234 <iprintf>
E:\nucleistudio_workspace\test_encry_decry\Debug/../application/main.c:101
    		flag = 0;
80000e2c:	82018793          	addi	a5,gp,-2016 # 90000080 <flag>
80000e30:	0007a023          	sw	zero,0(a5)
E:\nucleistudio_workspace\test_encry_decry\Debug/../application/main.c:71
        if(test == 0) {
80000e34:	bf2d                	j	80000d6e <main+0xe4>

80000e36 <__udivdi3>:
__udivdi3():
/Local/xl_ci/toolchain/riscv-gnu-toolchain/riscv-gcc/libgcc/libgcc2.c:1319
80000e36:	88aa                	mv	a7,a0
80000e38:	87ae                	mv	a5,a1
__udivmoddi4():
/Local/xl_ci/toolchain/riscv-gnu-toolchain/riscv-gcc/libgcc/libgcc2.c:1024
80000e3a:	8832                	mv	a6,a2
/Local/xl_ci/toolchain/riscv-gnu-toolchain/riscv-gcc/libgcc/libgcc2.c:1025
80000e3c:	8536                	mv	a0,a3
/Local/xl_ci/toolchain/riscv-gnu-toolchain/riscv-gcc/libgcc/libgcc2.c:1026
80000e3e:	8346                	mv	t1,a7
/Local/xl_ci/toolchain/riscv-gnu-toolchain/riscv-gcc/libgcc/libgcc2.c:1064
80000e40:	20069663          	bnez	a3,8000104c <__udivdi3+0x216>
/Local/xl_ci/toolchain/riscv-gnu-toolchain/riscv-gcc/libgcc/libgcc2.c:1066
80000e44:	00002697          	auipc	a3,0x2
80000e48:	88068693          	addi	a3,a3,-1920 # 800026c4 <__clz_tab>
80000e4c:	0ac5ff63          	bgeu	a1,a2,80000f0a <__udivdi3+0xd4>
/Local/xl_ci/toolchain/riscv-gnu-toolchain/riscv-gcc/libgcc/libgcc2.c:1070
80000e50:	6741                	lui	a4,0x10
80000e52:	0ae67563          	bgeu	a2,a4,80000efc <__udivdi3+0xc6>
80000e56:	0ff00713          	li	a4,255
80000e5a:	00c73733          	sltu	a4,a4,a2
80000e5e:	070e                	slli	a4,a4,0x3
80000e60:	00e65533          	srl	a0,a2,a4
80000e64:	96aa                	add	a3,a3,a0
80000e66:	0006c683          	lbu	a3,0(a3)
80000e6a:	02000513          	li	a0,32
80000e6e:	9736                	add	a4,a4,a3
80000e70:	40e506b3          	sub	a3,a0,a4
/Local/xl_ci/toolchain/riscv-gnu-toolchain/riscv-gcc/libgcc/libgcc2.c:1072
80000e74:	00e50b63          	beq	a0,a4,80000e8a <__udivdi3+0x54>
/Local/xl_ci/toolchain/riscv-gnu-toolchain/riscv-gcc/libgcc/libgcc2.c:1078
80000e78:	00d795b3          	sll	a1,a5,a3
80000e7c:	00e8d733          	srl	a4,a7,a4
/Local/xl_ci/toolchain/riscv-gnu-toolchain/riscv-gcc/libgcc/libgcc2.c:1077
80000e80:	00d61833          	sll	a6,a2,a3
/Local/xl_ci/toolchain/riscv-gnu-toolchain/riscv-gcc/libgcc/libgcc2.c:1078
80000e84:	8dd9                	or	a1,a1,a4
/Local/xl_ci/toolchain/riscv-gnu-toolchain/riscv-gcc/libgcc/libgcc2.c:1079
80000e86:	00d89333          	sll	t1,a7,a3
/Local/xl_ci/toolchain/riscv-gnu-toolchain/riscv-gcc/libgcc/libgcc2.c:1082
80000e8a:	01085893          	srli	a7,a6,0x10
80000e8e:	0315d6b3          	divu	a3,a1,a7
80000e92:	01081613          	slli	a2,a6,0x10
80000e96:	8241                	srli	a2,a2,0x10
80000e98:	01035793          	srli	a5,t1,0x10
80000e9c:	0315f733          	remu	a4,a1,a7
80000ea0:	8536                	mv	a0,a3
80000ea2:	02d605b3          	mul	a1,a2,a3
80000ea6:	0742                	slli	a4,a4,0x10
80000ea8:	8fd9                	or	a5,a5,a4
80000eaa:	00b7fc63          	bgeu	a5,a1,80000ec2 <__udivdi3+0x8c>
80000eae:	97c2                	add	a5,a5,a6
80000eb0:	fff68513          	addi	a0,a3,-1
80000eb4:	0107e763          	bltu	a5,a6,80000ec2 <__udivdi3+0x8c>
80000eb8:	00b7f563          	bgeu	a5,a1,80000ec2 <__udivdi3+0x8c>
80000ebc:	ffe68513          	addi	a0,a3,-2
80000ec0:	97c2                	add	a5,a5,a6
80000ec2:	8f8d                	sub	a5,a5,a1
80000ec4:	0317f733          	remu	a4,a5,a7
80000ec8:	0342                	slli	t1,t1,0x10
80000eca:	01035313          	srli	t1,t1,0x10
80000ece:	0317d7b3          	divu	a5,a5,a7
80000ed2:	0742                	slli	a4,a4,0x10
80000ed4:	00676333          	or	t1,a4,t1
80000ed8:	02f606b3          	mul	a3,a2,a5
80000edc:	863e                	mv	a2,a5
80000ede:	00d37b63          	bgeu	t1,a3,80000ef4 <__udivdi3+0xbe>
80000ee2:	9342                	add	t1,t1,a6
80000ee4:	fff78613          	addi	a2,a5,-1
80000ee8:	01036663          	bltu	t1,a6,80000ef4 <__udivdi3+0xbe>
80000eec:	00d37463          	bgeu	t1,a3,80000ef4 <__udivdi3+0xbe>
80000ef0:	ffe78613          	addi	a2,a5,-2
80000ef4:	0542                	slli	a0,a0,0x10
80000ef6:	8d51                	or	a0,a0,a2
/Local/xl_ci/toolchain/riscv-gnu-toolchain/riscv-gcc/libgcc/libgcc2.c:1209
80000ef8:	4581                	li	a1,0
80000efa:	a85d                	j	80000fb0 <__udivdi3+0x17a>
/Local/xl_ci/toolchain/riscv-gnu-toolchain/riscv-gcc/libgcc/libgcc2.c:1070
80000efc:	01000537          	lui	a0,0x1000
80000f00:	4741                	li	a4,16
80000f02:	f4a66fe3          	bltu	a2,a0,80000e60 <__udivdi3+0x2a>
80000f06:	4761                	li	a4,24
80000f08:	bfa1                	j	80000e60 <__udivdi3+0x2a>
/Local/xl_ci/toolchain/riscv-gnu-toolchain/riscv-gcc/libgcc/libgcc2.c:1091
80000f0a:	e601                	bnez	a2,80000f12 <__udivdi3+0xdc>
/Local/xl_ci/toolchain/riscv-gnu-toolchain/riscv-gcc/libgcc/libgcc2.c:1092
80000f0c:	4705                	li	a4,1
80000f0e:	02c75833          	divu	a6,a4,a2
/Local/xl_ci/toolchain/riscv-gnu-toolchain/riscv-gcc/libgcc/libgcc2.c:1094
80000f12:	6741                	lui	a4,0x10
80000f14:	08e87f63          	bgeu	a6,a4,80000fb2 <__udivdi3+0x17c>
80000f18:	0ff00713          	li	a4,255
80000f1c:	01077363          	bgeu	a4,a6,80000f22 <__udivdi3+0xec>
80000f20:	4521                	li	a0,8
80000f22:	00a85733          	srl	a4,a6,a0
80000f26:	96ba                	add	a3,a3,a4
80000f28:	0006c703          	lbu	a4,0(a3)
80000f2c:	02000613          	li	a2,32
80000f30:	972a                	add	a4,a4,a0
80000f32:	40e606b3          	sub	a3,a2,a4
/Local/xl_ci/toolchain/riscv-gnu-toolchain/riscv-gcc/libgcc/libgcc2.c:1096
80000f36:	08e61563          	bne	a2,a4,80000fc0 <__udivdi3+0x18a>
/Local/xl_ci/toolchain/riscv-gnu-toolchain/riscv-gcc/libgcc/libgcc2.c:1105
80000f3a:	410787b3          	sub	a5,a5,a6
/Local/xl_ci/toolchain/riscv-gnu-toolchain/riscv-gcc/libgcc/libgcc2.c:1106
80000f3e:	4585                	li	a1,1
/Local/xl_ci/toolchain/riscv-gnu-toolchain/riscv-gcc/libgcc/libgcc2.c:1124
80000f40:	01085893          	srli	a7,a6,0x10
80000f44:	01081613          	slli	a2,a6,0x10
80000f48:	8241                	srli	a2,a2,0x10
80000f4a:	01035713          	srli	a4,t1,0x10
80000f4e:	0317f6b3          	remu	a3,a5,a7
80000f52:	0317d7b3          	divu	a5,a5,a7
80000f56:	06c2                	slli	a3,a3,0x10
80000f58:	8f55                	or	a4,a4,a3
80000f5a:	02f60e33          	mul	t3,a2,a5
80000f5e:	853e                	mv	a0,a5
80000f60:	01c77c63          	bgeu	a4,t3,80000f78 <__udivdi3+0x142>
80000f64:	9742                	add	a4,a4,a6
80000f66:	fff78513          	addi	a0,a5,-1
80000f6a:	01076763          	bltu	a4,a6,80000f78 <__udivdi3+0x142>
80000f6e:	01c77563          	bgeu	a4,t3,80000f78 <__udivdi3+0x142>
80000f72:	ffe78513          	addi	a0,a5,-2
80000f76:	9742                	add	a4,a4,a6
80000f78:	41c70733          	sub	a4,a4,t3
80000f7c:	031777b3          	remu	a5,a4,a7
80000f80:	0342                	slli	t1,t1,0x10
80000f82:	01035313          	srli	t1,t1,0x10
80000f86:	03175733          	divu	a4,a4,a7
80000f8a:	07c2                	slli	a5,a5,0x10
80000f8c:	0067e333          	or	t1,a5,t1
80000f90:	02e606b3          	mul	a3,a2,a4
80000f94:	863a                	mv	a2,a4
80000f96:	00d37b63          	bgeu	t1,a3,80000fac <__udivdi3+0x176>
80000f9a:	9342                	add	t1,t1,a6
80000f9c:	fff70613          	addi	a2,a4,-1 # ffff <__stack_size+0xf7ff>
80000fa0:	01036663          	bltu	t1,a6,80000fac <__udivdi3+0x176>
80000fa4:	00d37463          	bgeu	t1,a3,80000fac <__udivdi3+0x176>
80000fa8:	ffe70613          	addi	a2,a4,-2
80000fac:	0542                	slli	a0,a0,0x10
80000fae:	8d51                	or	a0,a0,a2
__udivdi3():
/Local/xl_ci/toolchain/riscv-gnu-toolchain/riscv-gcc/libgcc/libgcc2.c:1321
80000fb0:	8082                	ret
__udivmoddi4():
/Local/xl_ci/toolchain/riscv-gnu-toolchain/riscv-gcc/libgcc/libgcc2.c:1094
80000fb2:	01000737          	lui	a4,0x1000
80000fb6:	4541                	li	a0,16
80000fb8:	f6e865e3          	bltu	a6,a4,80000f22 <__udivdi3+0xec>
80000fbc:	4561                	li	a0,24
80000fbe:	b795                	j	80000f22 <__udivdi3+0xec>
/Local/xl_ci/toolchain/riscv-gnu-toolchain/riscv-gcc/libgcc/libgcc2.c:1114
80000fc0:	00d81833          	sll	a6,a6,a3
/Local/xl_ci/toolchain/riscv-gnu-toolchain/riscv-gcc/libgcc/libgcc2.c:1115
80000fc4:	00e7d533          	srl	a0,a5,a4
/Local/xl_ci/toolchain/riscv-gnu-toolchain/riscv-gcc/libgcc/libgcc2.c:1117
80000fc8:	00d89333          	sll	t1,a7,a3
/Local/xl_ci/toolchain/riscv-gnu-toolchain/riscv-gcc/libgcc/libgcc2.c:1116
80000fcc:	00d797b3          	sll	a5,a5,a3
80000fd0:	00e8d733          	srl	a4,a7,a4
/Local/xl_ci/toolchain/riscv-gnu-toolchain/riscv-gcc/libgcc/libgcc2.c:1119
80000fd4:	01085893          	srli	a7,a6,0x10
/Local/xl_ci/toolchain/riscv-gnu-toolchain/riscv-gcc/libgcc/libgcc2.c:1116
80000fd8:	00f76633          	or	a2,a4,a5
/Local/xl_ci/toolchain/riscv-gnu-toolchain/riscv-gcc/libgcc/libgcc2.c:1119
80000fdc:	03157733          	remu	a4,a0,a7
80000fe0:	01081793          	slli	a5,a6,0x10
80000fe4:	83c1                	srli	a5,a5,0x10
80000fe6:	01065593          	srli	a1,a2,0x10
80000fea:	03155533          	divu	a0,a0,a7
80000fee:	0742                	slli	a4,a4,0x10
80000ff0:	8f4d                	or	a4,a4,a1
80000ff2:	02a786b3          	mul	a3,a5,a0
80000ff6:	85aa                	mv	a1,a0
80000ff8:	00d77c63          	bgeu	a4,a3,80001010 <__udivdi3+0x1da>
80000ffc:	9742                	add	a4,a4,a6
80000ffe:	fff50593          	addi	a1,a0,-1 # ffffff <__stack_size+0xfff7ff>
80001002:	01076763          	bltu	a4,a6,80001010 <__udivdi3+0x1da>
80001006:	00d77563          	bgeu	a4,a3,80001010 <__udivdi3+0x1da>
8000100a:	ffe50593          	addi	a1,a0,-2
8000100e:	9742                	add	a4,a4,a6
80001010:	40d706b3          	sub	a3,a4,a3
80001014:	0316f733          	remu	a4,a3,a7
80001018:	0642                	slli	a2,a2,0x10
8000101a:	8241                	srli	a2,a2,0x10
8000101c:	0316d6b3          	divu	a3,a3,a7
80001020:	0742                	slli	a4,a4,0x10
80001022:	02d78533          	mul	a0,a5,a3
80001026:	00c767b3          	or	a5,a4,a2
8000102a:	8736                	mv	a4,a3
8000102c:	00a7fc63          	bgeu	a5,a0,80001044 <__udivdi3+0x20e>
80001030:	97c2                	add	a5,a5,a6
80001032:	fff68713          	addi	a4,a3,-1
80001036:	0107e763          	bltu	a5,a6,80001044 <__udivdi3+0x20e>
8000103a:	00a7f563          	bgeu	a5,a0,80001044 <__udivdi3+0x20e>
8000103e:	ffe68713          	addi	a4,a3,-2
80001042:	97c2                	add	a5,a5,a6
80001044:	05c2                	slli	a1,a1,0x10
80001046:	8f89                	sub	a5,a5,a0
80001048:	8dd9                	or	a1,a1,a4
8000104a:	bddd                	j	80000f40 <__udivdi3+0x10a>
/Local/xl_ci/toolchain/riscv-gnu-toolchain/riscv-gcc/libgcc/libgcc2.c:1140
8000104c:	14d5e263          	bltu	a1,a3,80001190 <__udivdi3+0x35a>
/Local/xl_ci/toolchain/riscv-gnu-toolchain/riscv-gcc/libgcc/libgcc2.c:1159
80001050:	6741                	lui	a4,0x10
80001052:	02e6ff63          	bgeu	a3,a4,80001090 <__udivdi3+0x25a>
80001056:	0ff00713          	li	a4,255
8000105a:	00d735b3          	sltu	a1,a4,a3
8000105e:	058e                	slli	a1,a1,0x3
80001060:	00b6d533          	srl	a0,a3,a1
80001064:	00001717          	auipc	a4,0x1
80001068:	66070713          	addi	a4,a4,1632 # 800026c4 <__clz_tab>
8000106c:	972a                	add	a4,a4,a0
8000106e:	00074703          	lbu	a4,0(a4)
80001072:	02000513          	li	a0,32
80001076:	972e                	add	a4,a4,a1
80001078:	40e505b3          	sub	a1,a0,a4
/Local/xl_ci/toolchain/riscv-gnu-toolchain/riscv-gcc/libgcc/libgcc2.c:1160
8000107c:	02e51163          	bne	a0,a4,8000109e <__udivdi3+0x268>
/Local/xl_ci/toolchain/riscv-gnu-toolchain/riscv-gcc/libgcc/libgcc2.c:1172
80001080:	4505                	li	a0,1
/Local/xl_ci/toolchain/riscv-gnu-toolchain/riscv-gcc/libgcc/libgcc2.c:1170
80001082:	f2f6e7e3          	bltu	a3,a5,80000fb0 <__udivdi3+0x17a>
80001086:	00c8b533          	sltu	a0,a7,a2
8000108a:	00154513          	xori	a0,a0,1
8000108e:	b70d                	j	80000fb0 <__udivdi3+0x17a>
/Local/xl_ci/toolchain/riscv-gnu-toolchain/riscv-gcc/libgcc/libgcc2.c:1159
80001090:	01000737          	lui	a4,0x1000
80001094:	45c1                	li	a1,16
80001096:	fce6e5e3          	bltu	a3,a4,80001060 <__udivdi3+0x22a>
8000109a:	45e1                	li	a1,24
8000109c:	b7d1                	j	80001060 <__udivdi3+0x22a>
/Local/xl_ci/toolchain/riscv-gnu-toolchain/riscv-gcc/libgcc/libgcc2.c:1194
8000109e:	00e65833          	srl	a6,a2,a4
800010a2:	00b696b3          	sll	a3,a3,a1
800010a6:	00d86833          	or	a6,a6,a3
/Local/xl_ci/toolchain/riscv-gnu-toolchain/riscv-gcc/libgcc/libgcc2.c:1196
800010aa:	00e7d333          	srl	t1,a5,a4
/Local/xl_ci/toolchain/riscv-gnu-toolchain/riscv-gcc/libgcc/libgcc2.c:1200
800010ae:	01085e93          	srli	t4,a6,0x10
800010b2:	03d376b3          	remu	a3,t1,t4
/Local/xl_ci/toolchain/riscv-gnu-toolchain/riscv-gcc/libgcc/libgcc2.c:1197
800010b6:	00b797b3          	sll	a5,a5,a1
800010ba:	00e8d733          	srl	a4,a7,a4
/Local/xl_ci/toolchain/riscv-gnu-toolchain/riscv-gcc/libgcc/libgcc2.c:1195
800010be:	00b61e33          	sll	t3,a2,a1
/Local/xl_ci/toolchain/riscv-gnu-toolchain/riscv-gcc/libgcc/libgcc2.c:1197
800010c2:	00f76633          	or	a2,a4,a5
/Local/xl_ci/toolchain/riscv-gnu-toolchain/riscv-gcc/libgcc/libgcc2.c:1200
800010c6:	01081793          	slli	a5,a6,0x10
800010ca:	83c1                	srli	a5,a5,0x10
800010cc:	01065713          	srli	a4,a2,0x10
800010d0:	03d35333          	divu	t1,t1,t4
800010d4:	06c2                	slli	a3,a3,0x10
800010d6:	8f55                	or	a4,a4,a3
800010d8:	02678f33          	mul	t5,a5,t1
800010dc:	851a                	mv	a0,t1
800010de:	01e77c63          	bgeu	a4,t5,800010f6 <__udivdi3+0x2c0>
800010e2:	9742                	add	a4,a4,a6
800010e4:	fff30513          	addi	a0,t1,-1
800010e8:	01076763          	bltu	a4,a6,800010f6 <__udivdi3+0x2c0>
800010ec:	01e77563          	bgeu	a4,t5,800010f6 <__udivdi3+0x2c0>
800010f0:	ffe30513          	addi	a0,t1,-2
800010f4:	9742                	add	a4,a4,a6
800010f6:	41e70733          	sub	a4,a4,t5
800010fa:	03d776b3          	remu	a3,a4,t4
800010fe:	03d75733          	divu	a4,a4,t4
80001102:	06c2                	slli	a3,a3,0x10
80001104:	02e78333          	mul	t1,a5,a4
80001108:	01061793          	slli	a5,a2,0x10
8000110c:	83c1                	srli	a5,a5,0x10
8000110e:	8fd5                	or	a5,a5,a3
80001110:	863a                	mv	a2,a4
80001112:	0067fc63          	bgeu	a5,t1,8000112a <__udivdi3+0x2f4>
80001116:	97c2                	add	a5,a5,a6
80001118:	fff70613          	addi	a2,a4,-1 # ffffff <__stack_size+0xfff7ff>
8000111c:	0107e763          	bltu	a5,a6,8000112a <__udivdi3+0x2f4>
80001120:	0067f563          	bgeu	a5,t1,8000112a <__udivdi3+0x2f4>
80001124:	ffe70613          	addi	a2,a4,-2
80001128:	97c2                	add	a5,a5,a6
8000112a:	0542                	slli	a0,a0,0x10
/Local/xl_ci/toolchain/riscv-gnu-toolchain/riscv-gcc/libgcc/libgcc2.c:1201
8000112c:	6ec1                	lui	t4,0x10
/Local/xl_ci/toolchain/riscv-gnu-toolchain/riscv-gcc/libgcc/libgcc2.c:1200
8000112e:	8d51                	or	a0,a0,a2
/Local/xl_ci/toolchain/riscv-gnu-toolchain/riscv-gcc/libgcc/libgcc2.c:1201
80001130:	fffe8693          	addi	a3,t4,-1 # ffff <__stack_size+0xf7ff>
80001134:	010e5613          	srli	a2,t3,0x10
80001138:	01055813          	srli	a6,a0,0x10
/Local/xl_ci/toolchain/riscv-gnu-toolchain/riscv-gcc/libgcc/libgcc2.c:1200
8000113c:	406787b3          	sub	a5,a5,t1
/Local/xl_ci/toolchain/riscv-gnu-toolchain/riscv-gcc/libgcc/libgcc2.c:1201
80001140:	00d57333          	and	t1,a0,a3
80001144:	00de76b3          	and	a3,t3,a3
80001148:	02d30e33          	mul	t3,t1,a3
8000114c:	02d806b3          	mul	a3,a6,a3
80001150:	010e5713          	srli	a4,t3,0x10
80001154:	02c30333          	mul	t1,t1,a2
80001158:	9336                	add	t1,t1,a3
8000115a:	971a                	add	a4,a4,t1
8000115c:	02c80833          	mul	a6,a6,a2
80001160:	00d77363          	bgeu	a4,a3,80001166 <__udivdi3+0x330>
80001164:	9876                	add	a6,a6,t4
80001166:	01075693          	srli	a3,a4,0x10
8000116a:	9836                	add	a6,a6,a3
/Local/xl_ci/toolchain/riscv-gnu-toolchain/riscv-gcc/libgcc/libgcc2.c:1203
8000116c:	0307e063          	bltu	a5,a6,8000118c <__udivdi3+0x356>
80001170:	d90794e3          	bne	a5,a6,80000ef8 <__udivdi3+0xc2>
/Local/xl_ci/toolchain/riscv-gnu-toolchain/riscv-gcc/libgcc/libgcc2.c:1201
80001174:	67c1                	lui	a5,0x10
80001176:	17fd                	addi	a5,a5,-1
80001178:	8f7d                	and	a4,a4,a5
8000117a:	0742                	slli	a4,a4,0x10
8000117c:	00fe7e33          	and	t3,t3,a5
/Local/xl_ci/toolchain/riscv-gnu-toolchain/riscv-gcc/libgcc/libgcc2.c:1198
80001180:	00b898b3          	sll	a7,a7,a1
/Local/xl_ci/toolchain/riscv-gnu-toolchain/riscv-gcc/libgcc/libgcc2.c:1201
80001184:	9772                	add	a4,a4,t3
/Local/xl_ci/toolchain/riscv-gnu-toolchain/riscv-gcc/libgcc/libgcc2.c:1209
80001186:	4581                	li	a1,0
/Local/xl_ci/toolchain/riscv-gnu-toolchain/riscv-gcc/libgcc/libgcc2.c:1203
80001188:	e2e8f4e3          	bgeu	a7,a4,80000fb0 <__udivdi3+0x17a>
/Local/xl_ci/toolchain/riscv-gnu-toolchain/riscv-gcc/libgcc/libgcc2.c:1205
8000118c:	157d                	addi	a0,a0,-1
__udivdi3():
/Local/xl_ci/toolchain/riscv-gnu-toolchain/riscv-gcc/libgcc/libgcc2.c:1206
8000118e:	b3ad                	j	80000ef8 <__udivdi3+0xc2>
__udivmoddi4():
/Local/xl_ci/toolchain/riscv-gnu-toolchain/riscv-gcc/libgcc/libgcc2.c:1145
80001190:	4581                	li	a1,0
/Local/xl_ci/toolchain/riscv-gnu-toolchain/riscv-gcc/libgcc/libgcc2.c:1144
80001192:	4501                	li	a0,0
80001194:	bd31                	j	80000fb0 <__udivdi3+0x17a>

80001196 <atexit>:
atexit():
80001196:	85aa                	mv	a1,a0
80001198:	4681                	li	a3,0
8000119a:	4601                	li	a2,0
8000119c:	4501                	li	a0,0
8000119e:	aeb5                	j	8000151a <__register_exitproc>

800011a0 <__libc_fini_array>:
__libc_fini_array():
800011a0:	1141                	addi	sp,sp,-16
800011a2:	c422                	sw	s0,8(sp)
800011a4:	c226                	sw	s1,4(sp)
800011a6:	00001417          	auipc	s0,0x1
800011aa:	71240413          	addi	s0,s0,1810 # 800028b8 <__fsymtab_end>
800011ae:	00001497          	auipc	s1,0x1
800011b2:	70a48493          	addi	s1,s1,1802 # 800028b8 <__fsymtab_end>
800011b6:	8c05                	sub	s0,s0,s1
800011b8:	c606                	sw	ra,12(sp)
800011ba:	8409                	srai	s0,s0,0x2
800011bc:	e411                	bnez	s0,800011c8 <__libc_fini_array+0x28>
800011be:	40b2                	lw	ra,12(sp)
800011c0:	4422                	lw	s0,8(sp)
800011c2:	4492                	lw	s1,4(sp)
800011c4:	0141                	addi	sp,sp,16
800011c6:	8082                	ret
800011c8:	147d                	addi	s0,s0,-1
800011ca:	00241793          	slli	a5,s0,0x2
800011ce:	97a6                	add	a5,a5,s1
800011d0:	439c                	lw	a5,0(a5)
800011d2:	9782                	jalr	a5
800011d4:	b7e5                	j	800011bc <__libc_fini_array+0x1c>

800011d6 <__libc_init_array>:
__libc_init_array():
800011d6:	1141                	addi	sp,sp,-16
800011d8:	c422                	sw	s0,8(sp)
800011da:	c226                	sw	s1,4(sp)
800011dc:	00001417          	auipc	s0,0x1
800011e0:	6dc40413          	addi	s0,s0,1756 # 800028b8 <__fsymtab_end>
800011e4:	00001497          	auipc	s1,0x1
800011e8:	6d448493          	addi	s1,s1,1748 # 800028b8 <__fsymtab_end>
800011ec:	8c81                	sub	s1,s1,s0
800011ee:	c04a                	sw	s2,0(sp)
800011f0:	c606                	sw	ra,12(sp)
800011f2:	8489                	srai	s1,s1,0x2
800011f4:	4901                	li	s2,0
800011f6:	02991563          	bne	s2,s1,80001220 <__libc_init_array+0x4a>
800011fa:	00001417          	auipc	s0,0x1
800011fe:	6be40413          	addi	s0,s0,1726 # 800028b8 <__fsymtab_end>
80001202:	00001497          	auipc	s1,0x1
80001206:	6b648493          	addi	s1,s1,1718 # 800028b8 <__fsymtab_end>
8000120a:	8c81                	sub	s1,s1,s0
8000120c:	8489                	srai	s1,s1,0x2
8000120e:	4901                	li	s2,0
80001210:	00991d63          	bne	s2,s1,8000122a <__libc_init_array+0x54>
80001214:	40b2                	lw	ra,12(sp)
80001216:	4422                	lw	s0,8(sp)
80001218:	4492                	lw	s1,4(sp)
8000121a:	4902                	lw	s2,0(sp)
8000121c:	0141                	addi	sp,sp,16
8000121e:	8082                	ret
80001220:	401c                	lw	a5,0(s0)
80001222:	0905                	addi	s2,s2,1
80001224:	0411                	addi	s0,s0,4
80001226:	9782                	jalr	a5
80001228:	b7f9                	j	800011f6 <__libc_init_array+0x20>
8000122a:	401c                	lw	a5,0(s0)
8000122c:	0905                	addi	s2,s2,1
8000122e:	0411                	addi	s0,s0,4
80001230:	9782                	jalr	a5
80001232:	bff9                	j	80001210 <__libc_init_array+0x3a>

80001234 <iprintf>:
printf():
80001234:	715d                	addi	sp,sp,-80
80001236:	d422                	sw	s0,40(sp)
80001238:	d606                	sw	ra,44(sp)
8000123a:	842a                	mv	s0,a0
8000123c:	da2e                	sw	a1,52(sp)
8000123e:	dc32                	sw	a2,56(sp)
80001240:	de36                	sw	a3,60(sp)
80001242:	c0ba                	sw	a4,64(sp)
80001244:	c2be                	sw	a5,68(sp)
80001246:	c4c2                	sw	a6,72(sp)
80001248:	c6c6                	sw	a7,76(sp)
8000124a:	8141a503          	lw	a0,-2028(gp) # 90000074 <_impure_ptr>
8000124e:	c511                	beqz	a0,8000125a <iprintf+0x26>
80001250:	4d1c                	lw	a5,24(a0)
80001252:	e781                	bnez	a5,8000125a <iprintf+0x26>
80001254:	c62a                	sw	a0,12(sp)
80001256:	2b61                	jal	800017ee <__sinit>
80001258:	4532                	lw	a0,12(sp)
8000125a:	450c                	lw	a1,8(a0)
8000125c:	1854                	addi	a3,sp,52
8000125e:	8622                	mv	a2,s0
80001260:	ce36                	sw	a3,28(sp)
80001262:	27b000ef          	jal	ra,80001cdc <_vfiprintf_r>
80001266:	50b2                	lw	ra,44(sp)
80001268:	5422                	lw	s0,40(sp)
8000126a:	6161                	addi	sp,sp,80
8000126c:	8082                	ret

8000126e <_puts_r>:
_puts_r():
8000126e:	1101                	addi	sp,sp,-32
80001270:	ca26                	sw	s1,20(sp)
80001272:	c84a                	sw	s2,16(sp)
80001274:	ce06                	sw	ra,28(sp)
80001276:	cc22                	sw	s0,24(sp)
80001278:	c64e                	sw	s3,12(sp)
8000127a:	c452                	sw	s4,8(sp)
8000127c:	84aa                	mv	s1,a0
8000127e:	892e                	mv	s2,a1
80001280:	c501                	beqz	a0,80001288 <_puts_r+0x1a>
80001282:	4d1c                	lw	a5,24(a0)
80001284:	e391                	bnez	a5,80001288 <_puts_r+0x1a>
80001286:	23a5                	jal	800017ee <__sinit>
80001288:	4c9c                	lw	a5,24(s1)
8000128a:	4480                	lw	s0,8(s1)
8000128c:	e399                	bnez	a5,80001292 <_puts_r+0x24>
8000128e:	8526                	mv	a0,s1
80001290:	2bb9                	jal	800017ee <__sinit>
80001292:	00001797          	auipc	a5,0x1
80001296:	55278793          	addi	a5,a5,1362 # 800027e4 <__sf_fake_stdin>
8000129a:	02f41c63          	bne	s0,a5,800012d2 <_puts_r+0x64>
8000129e:	40c0                	lw	s0,4(s1)
800012a0:	00c45783          	lhu	a5,12(s0)
800012a4:	8ba1                	andi	a5,a5,8
800012a6:	c7b1                	beqz	a5,800012f2 <_puts_r+0x84>
800012a8:	481c                	lw	a5,16(s0)
800012aa:	c7a1                	beqz	a5,800012f2 <_puts_r+0x84>
800012ac:	59fd                	li	s3,-1
800012ae:	4a29                	li	s4,10
800012b0:	441c                	lw	a5,8(s0)
800012b2:	00094583          	lbu	a1,0(s2)
800012b6:	17fd                	addi	a5,a5,-1
800012b8:	e9b1                	bnez	a1,8000130c <_puts_r+0x9e>
800012ba:	c41c                	sw	a5,8(s0)
800012bc:	0607de63          	bgez	a5,80001338 <_puts_r+0xca>
800012c0:	8622                	mv	a2,s0
800012c2:	45a9                	li	a1,10
800012c4:	8526                	mv	a0,s1
800012c6:	2079                	jal	80001354 <__swbuf_r>
800012c8:	57fd                	li	a5,-1
800012ca:	02f50863          	beq	a0,a5,800012fa <_puts_r+0x8c>
800012ce:	4529                	li	a0,10
800012d0:	a035                	j	800012fc <_puts_r+0x8e>
800012d2:	00001797          	auipc	a5,0x1
800012d6:	53278793          	addi	a5,a5,1330 # 80002804 <__sf_fake_stdout>
800012da:	00f41463          	bne	s0,a5,800012e2 <_puts_r+0x74>
800012de:	4480                	lw	s0,8(s1)
800012e0:	b7c1                	j	800012a0 <_puts_r+0x32>
800012e2:	00001797          	auipc	a5,0x1
800012e6:	4e278793          	addi	a5,a5,1250 # 800027c4 <__sf_fake_stderr>
800012ea:	faf41be3          	bne	s0,a5,800012a0 <_puts_r+0x32>
800012ee:	44c0                	lw	s0,12(s1)
800012f0:	bf45                	j	800012a0 <_puts_r+0x32>
800012f2:	85a2                	mv	a1,s0
800012f4:	8526                	mv	a0,s1
800012f6:	2a39                	jal	80001414 <__swsetup_r>
800012f8:	d955                	beqz	a0,800012ac <_puts_r+0x3e>
800012fa:	557d                	li	a0,-1
800012fc:	40f2                	lw	ra,28(sp)
800012fe:	4462                	lw	s0,24(sp)
80001300:	44d2                	lw	s1,20(sp)
80001302:	4942                	lw	s2,16(sp)
80001304:	49b2                	lw	s3,12(sp)
80001306:	4a22                	lw	s4,8(sp)
80001308:	6105                	addi	sp,sp,32
8000130a:	8082                	ret
8000130c:	c41c                	sw	a5,8(s0)
8000130e:	0905                	addi	s2,s2,1
80001310:	0007d763          	bgez	a5,8000131e <_puts_r+0xb0>
80001314:	4c18                	lw	a4,24(s0)
80001316:	00e7cb63          	blt	a5,a4,8000132c <_puts_r+0xbe>
8000131a:	01458963          	beq	a1,s4,8000132c <_puts_r+0xbe>
8000131e:	401c                	lw	a5,0(s0)
80001320:	00178713          	addi	a4,a5,1
80001324:	c018                	sw	a4,0(s0)
80001326:	00b78023          	sb	a1,0(a5)
8000132a:	b759                	j	800012b0 <_puts_r+0x42>
8000132c:	8622                	mv	a2,s0
8000132e:	8526                	mv	a0,s1
80001330:	2015                	jal	80001354 <__swbuf_r>
80001332:	f7351fe3          	bne	a0,s3,800012b0 <_puts_r+0x42>
80001336:	b7d1                	j	800012fa <_puts_r+0x8c>
80001338:	401c                	lw	a5,0(s0)
8000133a:	00178713          	addi	a4,a5,1
8000133e:	c018                	sw	a4,0(s0)
80001340:	4729                	li	a4,10
80001342:	00e78023          	sb	a4,0(a5)
80001346:	b761                	j	800012ce <_puts_r+0x60>

80001348 <puts>:
puts():
80001348:	85aa                	mv	a1,a0
8000134a:	8141a503          	lw	a0,-2028(gp) # 90000074 <_impure_ptr>
8000134e:	b705                	j	8000126e <_puts_r>

80001350 <isatty>:
isatty():
80001350:	dc9fe06f          	j	80000118 <_isatty>

80001354 <__swbuf_r>:
__swbuf_r():
80001354:	1101                	addi	sp,sp,-32
80001356:	cc22                	sw	s0,24(sp)
80001358:	ca26                	sw	s1,20(sp)
8000135a:	c84a                	sw	s2,16(sp)
8000135c:	ce06                	sw	ra,28(sp)
8000135e:	c64e                	sw	s3,12(sp)
80001360:	84aa                	mv	s1,a0
80001362:	892e                	mv	s2,a1
80001364:	8432                	mv	s0,a2
80001366:	c501                	beqz	a0,8000136e <__swbuf_r+0x1a>
80001368:	4d1c                	lw	a5,24(a0)
8000136a:	e391                	bnez	a5,8000136e <__swbuf_r+0x1a>
8000136c:	2149                	jal	800017ee <__sinit>
8000136e:	00001797          	auipc	a5,0x1
80001372:	47678793          	addi	a5,a5,1142 # 800027e4 <__sf_fake_stdin>
80001376:	06f41963          	bne	s0,a5,800013e8 <__swbuf_r+0x94>
8000137a:	40c0                	lw	s0,4(s1)
8000137c:	4c1c                	lw	a5,24(s0)
8000137e:	c41c                	sw	a5,8(s0)
80001380:	00c45783          	lhu	a5,12(s0)
80001384:	8ba1                	andi	a5,a5,8
80001386:	c3c9                	beqz	a5,80001408 <__swbuf_r+0xb4>
80001388:	481c                	lw	a5,16(s0)
8000138a:	cfbd                	beqz	a5,80001408 <__swbuf_r+0xb4>
8000138c:	481c                	lw	a5,16(s0)
8000138e:	4008                	lw	a0,0(s0)
80001390:	0ff97993          	zext.b	s3,s2
80001394:	0ff97913          	zext.b	s2,s2
80001398:	8d1d                	sub	a0,a0,a5
8000139a:	485c                	lw	a5,20(s0)
8000139c:	00f54663          	blt	a0,a5,800013a8 <__swbuf_r+0x54>
800013a0:	85a2                	mv	a1,s0
800013a2:	8526                	mv	a0,s1
800013a4:	2e05                	jal	800016d4 <_fflush_r>
800013a6:	e52d                	bnez	a0,80001410 <__swbuf_r+0xbc>
800013a8:	441c                	lw	a5,8(s0)
800013aa:	0505                	addi	a0,a0,1
800013ac:	17fd                	addi	a5,a5,-1
800013ae:	c41c                	sw	a5,8(s0)
800013b0:	401c                	lw	a5,0(s0)
800013b2:	00178713          	addi	a4,a5,1
800013b6:	c018                	sw	a4,0(s0)
800013b8:	01378023          	sb	s3,0(a5)
800013bc:	485c                	lw	a5,20(s0)
800013be:	00a78963          	beq	a5,a0,800013d0 <__swbuf_r+0x7c>
800013c2:	00c45783          	lhu	a5,12(s0)
800013c6:	8b85                	andi	a5,a5,1
800013c8:	cb81                	beqz	a5,800013d8 <__swbuf_r+0x84>
800013ca:	47a9                	li	a5,10
800013cc:	00f91663          	bne	s2,a5,800013d8 <__swbuf_r+0x84>
800013d0:	85a2                	mv	a1,s0
800013d2:	8526                	mv	a0,s1
800013d4:	2601                	jal	800016d4 <_fflush_r>
800013d6:	ed0d                	bnez	a0,80001410 <__swbuf_r+0xbc>
800013d8:	40f2                	lw	ra,28(sp)
800013da:	4462                	lw	s0,24(sp)
800013dc:	44d2                	lw	s1,20(sp)
800013de:	49b2                	lw	s3,12(sp)
800013e0:	854a                	mv	a0,s2
800013e2:	4942                	lw	s2,16(sp)
800013e4:	6105                	addi	sp,sp,32
800013e6:	8082                	ret
800013e8:	00001797          	auipc	a5,0x1
800013ec:	41c78793          	addi	a5,a5,1052 # 80002804 <__sf_fake_stdout>
800013f0:	00f41463          	bne	s0,a5,800013f8 <__swbuf_r+0xa4>
800013f4:	4480                	lw	s0,8(s1)
800013f6:	b759                	j	8000137c <__swbuf_r+0x28>
800013f8:	00001797          	auipc	a5,0x1
800013fc:	3cc78793          	addi	a5,a5,972 # 800027c4 <__sf_fake_stderr>
80001400:	f6f41ee3          	bne	s0,a5,8000137c <__swbuf_r+0x28>
80001404:	44c0                	lw	s0,12(s1)
80001406:	bf9d                	j	8000137c <__swbuf_r+0x28>
80001408:	85a2                	mv	a1,s0
8000140a:	8526                	mv	a0,s1
8000140c:	2021                	jal	80001414 <__swsetup_r>
8000140e:	dd3d                	beqz	a0,8000138c <__swbuf_r+0x38>
80001410:	597d                	li	s2,-1
80001412:	b7d9                	j	800013d8 <__swbuf_r+0x84>

80001414 <__swsetup_r>:
__swsetup_r():
80001414:	1141                	addi	sp,sp,-16
80001416:	c422                	sw	s0,8(sp)
80001418:	c226                	sw	s1,4(sp)
8000141a:	c04a                	sw	s2,0(sp)
8000141c:	c606                	sw	ra,12(sp)
8000141e:	8141a483          	lw	s1,-2028(gp) # 90000074 <_impure_ptr>
80001422:	892a                	mv	s2,a0
80001424:	842e                	mv	s0,a1
80001426:	c489                	beqz	s1,80001430 <__swsetup_r+0x1c>
80001428:	4c9c                	lw	a5,24(s1)
8000142a:	e399                	bnez	a5,80001430 <__swsetup_r+0x1c>
8000142c:	8526                	mv	a0,s1
8000142e:	26c1                	jal	800017ee <__sinit>
80001430:	00001797          	auipc	a5,0x1
80001434:	3b478793          	addi	a5,a5,948 # 800027e4 <__sf_fake_stdin>
80001438:	02f41763          	bne	s0,a5,80001466 <__swsetup_r+0x52>
8000143c:	40c0                	lw	s0,4(s1)
8000143e:	00c41783          	lh	a5,12(s0)
80001442:	01079713          	slli	a4,a5,0x10
80001446:	0087f693          	andi	a3,a5,8
8000144a:	8341                	srli	a4,a4,0x10
8000144c:	eaad                	bnez	a3,800014be <__swsetup_r+0xaa>
8000144e:	01077693          	andi	a3,a4,16
80001452:	ea95                	bnez	a3,80001486 <__swsetup_r+0x72>
80001454:	4725                	li	a4,9
80001456:	00e92023          	sw	a4,0(s2)
8000145a:	0407e793          	ori	a5,a5,64
8000145e:	00f41623          	sh	a5,12(s0)
80001462:	557d                	li	a0,-1
80001464:	a871                	j	80001500 <__swsetup_r+0xec>
80001466:	00001797          	auipc	a5,0x1
8000146a:	39e78793          	addi	a5,a5,926 # 80002804 <__sf_fake_stdout>
8000146e:	00f41463          	bne	s0,a5,80001476 <__swsetup_r+0x62>
80001472:	4480                	lw	s0,8(s1)
80001474:	b7e9                	j	8000143e <__swsetup_r+0x2a>
80001476:	00001797          	auipc	a5,0x1
8000147a:	34e78793          	addi	a5,a5,846 # 800027c4 <__sf_fake_stderr>
8000147e:	fcf410e3          	bne	s0,a5,8000143e <__swsetup_r+0x2a>
80001482:	44c0                	lw	s0,12(s1)
80001484:	bf6d                	j	8000143e <__swsetup_r+0x2a>
80001486:	8b11                	andi	a4,a4,4
80001488:	c70d                	beqz	a4,800014b2 <__swsetup_r+0x9e>
8000148a:	584c                	lw	a1,52(s0)
8000148c:	c989                	beqz	a1,8000149e <__swsetup_r+0x8a>
8000148e:	04440793          	addi	a5,s0,68
80001492:	00f58463          	beq	a1,a5,8000149a <__swsetup_r+0x86>
80001496:	854a                	mv	a0,s2
80001498:	2585                	jal	80001af8 <_free_r>
8000149a:	02042a23          	sw	zero,52(s0)
8000149e:	00c45783          	lhu	a5,12(s0)
800014a2:	00042223          	sw	zero,4(s0)
800014a6:	fdb7f793          	andi	a5,a5,-37
800014aa:	00f41623          	sh	a5,12(s0)
800014ae:	481c                	lw	a5,16(s0)
800014b0:	c01c                	sw	a5,0(s0)
800014b2:	00c45783          	lhu	a5,12(s0)
800014b6:	0087e793          	ori	a5,a5,8
800014ba:	00f41623          	sh	a5,12(s0)
800014be:	481c                	lw	a5,16(s0)
800014c0:	ef81                	bnez	a5,800014d8 <__swsetup_r+0xc4>
800014c2:	00c45783          	lhu	a5,12(s0)
800014c6:	20000713          	li	a4,512
800014ca:	2807f793          	andi	a5,a5,640
800014ce:	00e78563          	beq	a5,a4,800014d8 <__swsetup_r+0xc4>
800014d2:	85a2                	mv	a1,s0
800014d4:	854a                	mv	a0,s2
800014d6:	29f1                	jal	800019b2 <__smakebuf_r>
800014d8:	00c41783          	lh	a5,12(s0)
800014dc:	01079713          	slli	a4,a5,0x10
800014e0:	0017f693          	andi	a3,a5,1
800014e4:	8341                	srli	a4,a4,0x10
800014e6:	c29d                	beqz	a3,8000150c <__swsetup_r+0xf8>
800014e8:	4854                	lw	a3,20(s0)
800014ea:	00042423          	sw	zero,8(s0)
800014ee:	40d006b3          	neg	a3,a3
800014f2:	cc14                	sw	a3,24(s0)
800014f4:	4814                	lw	a3,16(s0)
800014f6:	4501                	li	a0,0
800014f8:	e681                	bnez	a3,80001500 <__swsetup_r+0xec>
800014fa:	08077713          	andi	a4,a4,128
800014fe:	ff31                	bnez	a4,8000145a <__swsetup_r+0x46>
80001500:	40b2                	lw	ra,12(sp)
80001502:	4422                	lw	s0,8(sp)
80001504:	4492                	lw	s1,4(sp)
80001506:	4902                	lw	s2,0(sp)
80001508:	0141                	addi	sp,sp,16
8000150a:	8082                	ret
8000150c:	00277693          	andi	a3,a4,2
80001510:	4601                	li	a2,0
80001512:	e291                	bnez	a3,80001516 <__swsetup_r+0x102>
80001514:	4850                	lw	a2,20(s0)
80001516:	c410                	sw	a2,8(s0)
80001518:	bff1                	j	800014f4 <__swsetup_r+0xe0>

8000151a <__register_exitproc>:
__register_exitproc():
8000151a:	88aa                	mv	a7,a0
8000151c:	82818513          	addi	a0,gp,-2008 # 90000088 <_global_atexit>
80001520:	411c                	lw	a5,0(a0)
80001522:	ef81                	bnez	a5,8000153a <__register_exitproc+0x20>
80001524:	8cc18713          	addi	a4,gp,-1844 # 9000012c <_global_atexit0>
80001528:	c118                	sw	a4,0(a0)
8000152a:	00000513          	li	a0,0
8000152e:	87ba                	mv	a5,a4
80001530:	c509                	beqz	a0,8000153a <__register_exitproc+0x20>
80001532:	411c                	lw	a5,0(a0)
80001534:	08f72423          	sw	a5,136(a4)
80001538:	87ba                	mv	a5,a4
8000153a:	43d8                	lw	a4,4(a5)
8000153c:	487d                	li	a6,31
8000153e:	557d                	li	a0,-1
80001540:	04e84663          	blt	a6,a4,8000158c <__register_exitproc+0x72>
80001544:	02088d63          	beqz	a7,8000157e <__register_exitproc+0x64>
80001548:	0887a803          	lw	a6,136(a5)
8000154c:	04080063          	beqz	a6,8000158c <__register_exitproc+0x72>
80001550:	00271513          	slli	a0,a4,0x2
80001554:	9542                	add	a0,a0,a6
80001556:	c110                	sw	a2,0(a0)
80001558:	10082303          	lw	t1,256(a6)
8000155c:	4605                	li	a2,1
8000155e:	00e61633          	sll	a2,a2,a4
80001562:	00c36333          	or	t1,t1,a2
80001566:	10682023          	sw	t1,256(a6)
8000156a:	08d52023          	sw	a3,128(a0)
8000156e:	4689                	li	a3,2
80001570:	00d89763          	bne	a7,a3,8000157e <__register_exitproc+0x64>
80001574:	10482683          	lw	a3,260(a6)
80001578:	8e55                	or	a2,a2,a3
8000157a:	10c82223          	sw	a2,260(a6)
8000157e:	00170693          	addi	a3,a4,1
80001582:	070a                	slli	a4,a4,0x2
80001584:	c3d4                	sw	a3,4(a5)
80001586:	97ba                	add	a5,a5,a4
80001588:	c78c                	sw	a1,8(a5)
8000158a:	4501                	li	a0,0
8000158c:	8082                	ret

8000158e <__sflush_r>:
__sflush_r():
8000158e:	00c5d783          	lhu	a5,12(a1) # 3000c <__stack_size+0x2f80c>
80001592:	1101                	addi	sp,sp,-32
80001594:	cc22                	sw	s0,24(sp)
80001596:	ca26                	sw	s1,20(sp)
80001598:	ce06                	sw	ra,28(sp)
8000159a:	c84a                	sw	s2,16(sp)
8000159c:	c64e                	sw	s3,12(sp)
8000159e:	0087f713          	andi	a4,a5,8
800015a2:	84aa                	mv	s1,a0
800015a4:	842e                	mv	s0,a1
800015a6:	e375                	bnez	a4,8000168a <__sflush_r+0xfc>
800015a8:	41d8                	lw	a4,4(a1)
800015aa:	00e04763          	bgtz	a4,800015b8 <__sflush_r+0x2a>
800015ae:	41b8                	lw	a4,64(a1)
800015b0:	00e04463          	bgtz	a4,800015b8 <__sflush_r+0x2a>
800015b4:	4501                	li	a0,0
800015b6:	a875                	j	80001672 <__sflush_r+0xe4>
800015b8:	5458                	lw	a4,44(s0)
800015ba:	df6d                	beqz	a4,800015b4 <__sflush_r+0x26>
800015bc:	6685                	lui	a3,0x1
800015be:	0004a903          	lw	s2,0(s1)
800015c2:	8ff5                	and	a5,a5,a3
800015c4:	0004a023          	sw	zero,0(s1)
800015c8:	cfa5                	beqz	a5,80001640 <__sflush_r+0xb2>
800015ca:	4868                	lw	a0,84(s0)
800015cc:	00c45783          	lhu	a5,12(s0)
800015d0:	8b91                	andi	a5,a5,4
800015d2:	c799                	beqz	a5,800015e0 <__sflush_r+0x52>
800015d4:	405c                	lw	a5,4(s0)
800015d6:	8d1d                	sub	a0,a0,a5
800015d8:	585c                	lw	a5,52(s0)
800015da:	c399                	beqz	a5,800015e0 <__sflush_r+0x52>
800015dc:	403c                	lw	a5,64(s0)
800015de:	8d1d                	sub	a0,a0,a5
800015e0:	545c                	lw	a5,44(s0)
800015e2:	500c                	lw	a1,32(s0)
800015e4:	862a                	mv	a2,a0
800015e6:	4681                	li	a3,0
800015e8:	8526                	mv	a0,s1
800015ea:	9782                	jalr	a5
800015ec:	57fd                	li	a5,-1
800015ee:	00c45703          	lhu	a4,12(s0)
800015f2:	00f51d63          	bne	a0,a5,8000160c <__sflush_r+0x7e>
800015f6:	4094                	lw	a3,0(s1)
800015f8:	47f5                	li	a5,29
800015fa:	08d7e363          	bltu	a5,a3,80001680 <__sflush_r+0xf2>
800015fe:	204007b7          	lui	a5,0x20400
80001602:	0785                	addi	a5,a5,1
80001604:	00d7d7b3          	srl	a5,a5,a3
80001608:	8b85                	andi	a5,a5,1
8000160a:	cbbd                	beqz	a5,80001680 <__sflush_r+0xf2>
8000160c:	481c                	lw	a5,16(s0)
8000160e:	00042223          	sw	zero,4(s0)
80001612:	c01c                	sw	a5,0(s0)
80001614:	6785                	lui	a5,0x1
80001616:	8f7d                	and	a4,a4,a5
80001618:	c719                	beqz	a4,80001626 <__sflush_r+0x98>
8000161a:	57fd                	li	a5,-1
8000161c:	00f51463          	bne	a0,a5,80001624 <__sflush_r+0x96>
80001620:	409c                	lw	a5,0(s1)
80001622:	e391                	bnez	a5,80001626 <__sflush_r+0x98>
80001624:	c868                	sw	a0,84(s0)
80001626:	584c                	lw	a1,52(s0)
80001628:	0124a023          	sw	s2,0(s1)
8000162c:	d5c1                	beqz	a1,800015b4 <__sflush_r+0x26>
8000162e:	04440793          	addi	a5,s0,68
80001632:	00f58463          	beq	a1,a5,8000163a <__sflush_r+0xac>
80001636:	8526                	mv	a0,s1
80001638:	21c1                	jal	80001af8 <_free_r>
8000163a:	02042a23          	sw	zero,52(s0)
8000163e:	bf9d                	j	800015b4 <__sflush_r+0x26>
80001640:	500c                	lw	a1,32(s0)
80001642:	4685                	li	a3,1
80001644:	4601                	li	a2,0
80001646:	8526                	mv	a0,s1
80001648:	9702                	jalr	a4
8000164a:	57fd                	li	a5,-1
8000164c:	f8f510e3          	bne	a0,a5,800015cc <__sflush_r+0x3e>
80001650:	409c                	lw	a5,0(s1)
80001652:	dfad                	beqz	a5,800015cc <__sflush_r+0x3e>
80001654:	4775                	li	a4,29
80001656:	00e78563          	beq	a5,a4,80001660 <__sflush_r+0xd2>
8000165a:	4759                	li	a4,22
8000165c:	00e79563          	bne	a5,a4,80001666 <__sflush_r+0xd8>
80001660:	0124a023          	sw	s2,0(s1)
80001664:	bf81                	j	800015b4 <__sflush_r+0x26>
80001666:	00c45783          	lhu	a5,12(s0)
8000166a:	0407e793          	ori	a5,a5,64
8000166e:	00f41623          	sh	a5,12(s0)
80001672:	40f2                	lw	ra,28(sp)
80001674:	4462                	lw	s0,24(sp)
80001676:	44d2                	lw	s1,20(sp)
80001678:	4942                	lw	s2,16(sp)
8000167a:	49b2                	lw	s3,12(sp)
8000167c:	6105                	addi	sp,sp,32
8000167e:	8082                	ret
80001680:	04076713          	ori	a4,a4,64
80001684:	00e41623          	sh	a4,12(s0)
80001688:	b7ed                	j	80001672 <__sflush_r+0xe4>
8000168a:	0105a983          	lw	s3,16(a1)
8000168e:	f20983e3          	beqz	s3,800015b4 <__sflush_r+0x26>
80001692:	0005a903          	lw	s2,0(a1)
80001696:	8b8d                	andi	a5,a5,3
80001698:	0135a023          	sw	s3,0(a1)
8000169c:	41390933          	sub	s2,s2,s3
800016a0:	4701                	li	a4,0
800016a2:	e391                	bnez	a5,800016a6 <__sflush_r+0x118>
800016a4:	49d8                	lw	a4,20(a1)
800016a6:	c418                	sw	a4,8(s0)
800016a8:	f12056e3          	blez	s2,800015b4 <__sflush_r+0x26>
800016ac:	541c                	lw	a5,40(s0)
800016ae:	500c                	lw	a1,32(s0)
800016b0:	86ca                	mv	a3,s2
800016b2:	864e                	mv	a2,s3
800016b4:	8526                	mv	a0,s1
800016b6:	9782                	jalr	a5
800016b8:	00a04a63          	bgtz	a0,800016cc <__sflush_r+0x13e>
800016bc:	00c45783          	lhu	a5,12(s0)
800016c0:	557d                	li	a0,-1
800016c2:	0407e793          	ori	a5,a5,64
800016c6:	00f41623          	sh	a5,12(s0)
800016ca:	b765                	j	80001672 <__sflush_r+0xe4>
800016cc:	99aa                	add	s3,s3,a0
800016ce:	40a90933          	sub	s2,s2,a0
800016d2:	bfd9                	j	800016a8 <__sflush_r+0x11a>

800016d4 <_fflush_r>:
_fflush_r():
800016d4:	499c                	lw	a5,16(a1)
800016d6:	cfb9                	beqz	a5,80001734 <_fflush_r+0x60>
800016d8:	1101                	addi	sp,sp,-32
800016da:	cc22                	sw	s0,24(sp)
800016dc:	ce06                	sw	ra,28(sp)
800016de:	842a                	mv	s0,a0
800016e0:	c511                	beqz	a0,800016ec <_fflush_r+0x18>
800016e2:	4d1c                	lw	a5,24(a0)
800016e4:	e781                	bnez	a5,800016ec <_fflush_r+0x18>
800016e6:	c62e                	sw	a1,12(sp)
800016e8:	2219                	jal	800017ee <__sinit>
800016ea:	45b2                	lw	a1,12(sp)
800016ec:	00001797          	auipc	a5,0x1
800016f0:	0f878793          	addi	a5,a5,248 # 800027e4 <__sf_fake_stdin>
800016f4:	00f59b63          	bne	a1,a5,8000170a <_fflush_r+0x36>
800016f8:	404c                	lw	a1,4(s0)
800016fa:	00c59783          	lh	a5,12(a1)
800016fe:	c795                	beqz	a5,8000172a <_fflush_r+0x56>
80001700:	8522                	mv	a0,s0
80001702:	4462                	lw	s0,24(sp)
80001704:	40f2                	lw	ra,28(sp)
80001706:	6105                	addi	sp,sp,32
80001708:	b559                	j	8000158e <__sflush_r>
8000170a:	00001797          	auipc	a5,0x1
8000170e:	0fa78793          	addi	a5,a5,250 # 80002804 <__sf_fake_stdout>
80001712:	00f59463          	bne	a1,a5,8000171a <_fflush_r+0x46>
80001716:	440c                	lw	a1,8(s0)
80001718:	b7cd                	j	800016fa <_fflush_r+0x26>
8000171a:	00001797          	auipc	a5,0x1
8000171e:	0aa78793          	addi	a5,a5,170 # 800027c4 <__sf_fake_stderr>
80001722:	fcf59ce3          	bne	a1,a5,800016fa <_fflush_r+0x26>
80001726:	444c                	lw	a1,12(s0)
80001728:	bfc9                	j	800016fa <_fflush_r+0x26>
8000172a:	40f2                	lw	ra,28(sp)
8000172c:	4462                	lw	s0,24(sp)
8000172e:	4501                	li	a0,0
80001730:	6105                	addi	sp,sp,32
80001732:	8082                	ret
80001734:	4501                	li	a0,0
80001736:	8082                	ret

80001738 <std>:
std():
80001738:	1141                	addi	sp,sp,-16
8000173a:	c422                	sw	s0,8(sp)
8000173c:	c606                	sw	ra,12(sp)
8000173e:	842a                	mv	s0,a0
80001740:	00b51623          	sh	a1,12(a0)
80001744:	00c51723          	sh	a2,14(a0)
80001748:	00052023          	sw	zero,0(a0)
8000174c:	00052223          	sw	zero,4(a0)
80001750:	00052423          	sw	zero,8(a0)
80001754:	06052223          	sw	zero,100(a0)
80001758:	00052823          	sw	zero,16(a0)
8000175c:	00052a23          	sw	zero,20(a0)
80001760:	00052c23          	sw	zero,24(a0)
80001764:	4621                	li	a2,8
80001766:	4581                	li	a1,0
80001768:	05c50513          	addi	a0,a0,92
8000176c:	24d5                	jal	80001a50 <memset>
8000176e:	00001797          	auipc	a5,0x1
80001772:	ba678793          	addi	a5,a5,-1114 # 80002314 <__sread>
80001776:	d05c                	sw	a5,36(s0)
80001778:	00001797          	auipc	a5,0x1
8000177c:	bcc78793          	addi	a5,a5,-1076 # 80002344 <__swrite>
80001780:	d41c                	sw	a5,40(s0)
80001782:	00001797          	auipc	a5,0x1
80001786:	c1078793          	addi	a5,a5,-1008 # 80002392 <__sseek>
8000178a:	d45c                	sw	a5,44(s0)
8000178c:	00001797          	auipc	a5,0x1
80001790:	c3c78793          	addi	a5,a5,-964 # 800023c8 <__sclose>
80001794:	40b2                	lw	ra,12(sp)
80001796:	d000                	sw	s0,32(s0)
80001798:	d81c                	sw	a5,48(s0)
8000179a:	4422                	lw	s0,8(sp)
8000179c:	0141                	addi	sp,sp,16
8000179e:	8082                	ret

800017a0 <_cleanup_r>:
_cleanup_r():
800017a0:	00000597          	auipc	a1,0x0
800017a4:	f3458593          	addi	a1,a1,-204 # 800016d4 <_fflush_r>
800017a8:	a291                	j	800018ec <_fwalk_reent>

800017aa <__sfmoreglue>:
__sfmoreglue():
800017aa:	1141                	addi	sp,sp,-16
800017ac:	c226                	sw	s1,4(sp)
800017ae:	06800613          	li	a2,104
800017b2:	fff58493          	addi	s1,a1,-1
800017b6:	02c484b3          	mul	s1,s1,a2
800017ba:	c04a                	sw	s2,0(sp)
800017bc:	892e                	mv	s2,a1
800017be:	c422                	sw	s0,8(sp)
800017c0:	c606                	sw	ra,12(sp)
800017c2:	07448593          	addi	a1,s1,116
800017c6:	2ed1                	jal	80001b9a <_malloc_r>
800017c8:	842a                	mv	s0,a0
800017ca:	c919                	beqz	a0,800017e0 <__sfmoreglue+0x36>
800017cc:	00052023          	sw	zero,0(a0)
800017d0:	01252223          	sw	s2,4(a0)
800017d4:	0531                	addi	a0,a0,12
800017d6:	c408                	sw	a0,8(s0)
800017d8:	06848613          	addi	a2,s1,104
800017dc:	4581                	li	a1,0
800017de:	2c8d                	jal	80001a50 <memset>
800017e0:	40b2                	lw	ra,12(sp)
800017e2:	8522                	mv	a0,s0
800017e4:	4422                	lw	s0,8(sp)
800017e6:	4492                	lw	s1,4(sp)
800017e8:	4902                	lw	s2,0(sp)
800017ea:	0141                	addi	sp,sp,16
800017ec:	8082                	ret

800017ee <__sinit>:
__sinit():
800017ee:	4d1c                	lw	a5,24(a0)
800017f0:	e3ad                	bnez	a5,80001852 <__sinit+0x64>
800017f2:	1141                	addi	sp,sp,-16
800017f4:	c422                	sw	s0,8(sp)
800017f6:	c606                	sw	ra,12(sp)
800017f8:	00000797          	auipc	a5,0x0
800017fc:	fa878793          	addi	a5,a5,-88 # 800017a0 <_cleanup_r>
80001800:	d51c                	sw	a5,40(a0)
80001802:	04052423          	sw	zero,72(a0)
80001806:	04052623          	sw	zero,76(a0)
8000180a:	04052823          	sw	zero,80(a0)
8000180e:	8181a783          	lw	a5,-2024(gp) # 90000078 <_global_impure_ptr>
80001812:	842a                	mv	s0,a0
80001814:	00f51463          	bne	a0,a5,8000181c <__sinit+0x2e>
80001818:	4785                	li	a5,1
8000181a:	cd1c                	sw	a5,24(a0)
8000181c:	8522                	mv	a0,s0
8000181e:	281d                	jal	80001854 <__sfp>
80001820:	c048                	sw	a0,4(s0)
80001822:	8522                	mv	a0,s0
80001824:	2805                	jal	80001854 <__sfp>
80001826:	c408                	sw	a0,8(s0)
80001828:	8522                	mv	a0,s0
8000182a:	202d                	jal	80001854 <__sfp>
8000182c:	c448                	sw	a0,12(s0)
8000182e:	4048                	lw	a0,4(s0)
80001830:	4601                	li	a2,0
80001832:	4591                	li	a1,4
80001834:	3711                	jal	80001738 <std>
80001836:	4408                	lw	a0,8(s0)
80001838:	4605                	li	a2,1
8000183a:	45a5                	li	a1,9
8000183c:	3df5                	jal	80001738 <std>
8000183e:	4448                	lw	a0,12(s0)
80001840:	4609                	li	a2,2
80001842:	45c9                	li	a1,18
80001844:	3dd5                	jal	80001738 <std>
80001846:	4785                	li	a5,1
80001848:	40b2                	lw	ra,12(sp)
8000184a:	cc1c                	sw	a5,24(s0)
8000184c:	4422                	lw	s0,8(sp)
8000184e:	0141                	addi	sp,sp,16
80001850:	8082                	ret
80001852:	8082                	ret

80001854 <__sfp>:
__sfp():
80001854:	1141                	addi	sp,sp,-16
80001856:	c226                	sw	s1,4(sp)
80001858:	8181a483          	lw	s1,-2024(gp) # 90000078 <_global_impure_ptr>
8000185c:	4c9c                	lw	a5,24(s1)
8000185e:	c04a                	sw	s2,0(sp)
80001860:	c606                	sw	ra,12(sp)
80001862:	c422                	sw	s0,8(sp)
80001864:	892a                	mv	s2,a0
80001866:	e399                	bnez	a5,8000186c <__sfp+0x18>
80001868:	8526                	mv	a0,s1
8000186a:	3751                	jal	800017ee <__sinit>
8000186c:	04848493          	addi	s1,s1,72
80001870:	4480                	lw	s0,8(s1)
80001872:	40dc                	lw	a5,4(s1)
80001874:	17fd                	addi	a5,a5,-1
80001876:	0007d663          	bgez	a5,80001882 <__sfp+0x2e>
8000187a:	409c                	lw	a5,0(s1)
8000187c:	cfb1                	beqz	a5,800018d8 <__sfp+0x84>
8000187e:	4084                	lw	s1,0(s1)
80001880:	bfc5                	j	80001870 <__sfp+0x1c>
80001882:	00c41703          	lh	a4,12(s0)
80001886:	e731                	bnez	a4,800018d2 <__sfp+0x7e>
80001888:	77c1                	lui	a5,0xffff0
8000188a:	0785                	addi	a5,a5,1
8000188c:	06042223          	sw	zero,100(s0)
80001890:	00042023          	sw	zero,0(s0)
80001894:	00042223          	sw	zero,4(s0)
80001898:	00042423          	sw	zero,8(s0)
8000189c:	c45c                	sw	a5,12(s0)
8000189e:	00042823          	sw	zero,16(s0)
800018a2:	00042a23          	sw	zero,20(s0)
800018a6:	00042c23          	sw	zero,24(s0)
800018aa:	4621                	li	a2,8
800018ac:	4581                	li	a1,0
800018ae:	05c40513          	addi	a0,s0,92
800018b2:	2a79                	jal	80001a50 <memset>
800018b4:	02042a23          	sw	zero,52(s0)
800018b8:	02042c23          	sw	zero,56(s0)
800018bc:	04042423          	sw	zero,72(s0)
800018c0:	04042623          	sw	zero,76(s0)
800018c4:	40b2                	lw	ra,12(sp)
800018c6:	8522                	mv	a0,s0
800018c8:	4422                	lw	s0,8(sp)
800018ca:	4492                	lw	s1,4(sp)
800018cc:	4902                	lw	s2,0(sp)
800018ce:	0141                	addi	sp,sp,16
800018d0:	8082                	ret
800018d2:	06840413          	addi	s0,s0,104
800018d6:	bf79                	j	80001874 <__sfp+0x20>
800018d8:	4591                	li	a1,4
800018da:	854a                	mv	a0,s2
800018dc:	35f9                	jal	800017aa <__sfmoreglue>
800018de:	c088                	sw	a0,0(s1)
800018e0:	842a                	mv	s0,a0
800018e2:	fd51                	bnez	a0,8000187e <__sfp+0x2a>
800018e4:	47b1                	li	a5,12
800018e6:	00f92023          	sw	a5,0(s2)
800018ea:	bfe9                	j	800018c4 <__sfp+0x70>

800018ec <_fwalk_reent>:
_fwalk_reent():
800018ec:	7179                	addi	sp,sp,-48
800018ee:	d422                	sw	s0,40(sp)
800018f0:	d04a                	sw	s2,32(sp)
800018f2:	ce4e                	sw	s3,28(sp)
800018f4:	cc52                	sw	s4,24(sp)
800018f6:	c85a                	sw	s6,16(sp)
800018f8:	c65e                	sw	s7,12(sp)
800018fa:	d606                	sw	ra,44(sp)
800018fc:	d226                	sw	s1,36(sp)
800018fe:	ca56                	sw	s5,20(sp)
80001900:	892a                	mv	s2,a0
80001902:	8a2e                	mv	s4,a1
80001904:	04850413          	addi	s0,a0,72
80001908:	4981                	li	s3,0
8000190a:	4b05                	li	s6,1
8000190c:	5bfd                	li	s7,-1
8000190e:	4404                	lw	s1,8(s0)
80001910:	00442a83          	lw	s5,4(s0)
80001914:	1afd                	addi	s5,s5,-1
80001916:	020ad063          	bgez	s5,80001936 <_fwalk_reent+0x4a>
8000191a:	4000                	lw	s0,0(s0)
8000191c:	f86d                	bnez	s0,8000190e <_fwalk_reent+0x22>
8000191e:	50b2                	lw	ra,44(sp)
80001920:	5422                	lw	s0,40(sp)
80001922:	5492                	lw	s1,36(sp)
80001924:	5902                	lw	s2,32(sp)
80001926:	4a62                	lw	s4,24(sp)
80001928:	4ad2                	lw	s5,20(sp)
8000192a:	4b42                	lw	s6,16(sp)
8000192c:	4bb2                	lw	s7,12(sp)
8000192e:	854e                	mv	a0,s3
80001930:	49f2                	lw	s3,28(sp)
80001932:	6145                	addi	sp,sp,48
80001934:	8082                	ret
80001936:	00c4d783          	lhu	a5,12(s1)
8000193a:	00fb7b63          	bgeu	s6,a5,80001950 <_fwalk_reent+0x64>
8000193e:	00e49783          	lh	a5,14(s1)
80001942:	01778763          	beq	a5,s7,80001950 <_fwalk_reent+0x64>
80001946:	85a6                	mv	a1,s1
80001948:	854a                	mv	a0,s2
8000194a:	9a02                	jalr	s4
8000194c:	00a9e9b3          	or	s3,s3,a0
80001950:	06848493          	addi	s1,s1,104
80001954:	b7c1                	j	80001914 <_fwalk_reent+0x28>

80001956 <__swhatbuf_r>:
__swhatbuf_r():
80001956:	7159                	addi	sp,sp,-112
80001958:	d0ca                	sw	s2,96(sp)
8000195a:	892e                	mv	s2,a1
8000195c:	00e59583          	lh	a1,14(a1)
80001960:	d4a2                	sw	s0,104(sp)
80001962:	d2a6                	sw	s1,100(sp)
80001964:	d686                	sw	ra,108(sp)
80001966:	8432                	mv	s0,a2
80001968:	84b6                	mv	s1,a3
8000196a:	0005dc63          	bgez	a1,80001982 <__swhatbuf_r+0x2c>
8000196e:	00c91783          	lh	a5,12(s2)
80001972:	0004a023          	sw	zero,0(s1)
80001976:	0807f793          	andi	a5,a5,128
8000197a:	e395                	bnez	a5,8000199e <__swhatbuf_r+0x48>
8000197c:	40000793          	li	a5,1024
80001980:	a00d                	j	800019a2 <__swhatbuf_r+0x4c>
80001982:	0030                	addi	a2,sp,8
80001984:	29f000ef          	jal	ra,80002422 <_fstat_r>
80001988:	fe0543e3          	bltz	a0,8000196e <__swhatbuf_r+0x18>
8000198c:	4732                	lw	a4,12(sp)
8000198e:	67bd                	lui	a5,0xf
80001990:	8ff9                	and	a5,a5,a4
80001992:	7779                	lui	a4,0xffffe
80001994:	97ba                	add	a5,a5,a4
80001996:	0017b793          	seqz	a5,a5
8000199a:	c09c                	sw	a5,0(s1)
8000199c:	b7c5                	j	8000197c <__swhatbuf_r+0x26>
8000199e:	04000793          	li	a5,64
800019a2:	50b6                	lw	ra,108(sp)
800019a4:	c01c                	sw	a5,0(s0)
800019a6:	5426                	lw	s0,104(sp)
800019a8:	5496                	lw	s1,100(sp)
800019aa:	5906                	lw	s2,96(sp)
800019ac:	4501                	li	a0,0
800019ae:	6165                	addi	sp,sp,112
800019b0:	8082                	ret

800019b2 <__smakebuf_r>:
__smakebuf_r():
800019b2:	00c5d783          	lhu	a5,12(a1)
800019b6:	1101                	addi	sp,sp,-32
800019b8:	cc22                	sw	s0,24(sp)
800019ba:	ce06                	sw	ra,28(sp)
800019bc:	ca26                	sw	s1,20(sp)
800019be:	c84a                	sw	s2,16(sp)
800019c0:	8b89                	andi	a5,a5,2
800019c2:	842e                	mv	s0,a1
800019c4:	cf89                	beqz	a5,800019de <__smakebuf_r+0x2c>
800019c6:	04740793          	addi	a5,s0,71
800019ca:	c01c                	sw	a5,0(s0)
800019cc:	c81c                	sw	a5,16(s0)
800019ce:	4785                	li	a5,1
800019d0:	c85c                	sw	a5,20(s0)
800019d2:	40f2                	lw	ra,28(sp)
800019d4:	4462                	lw	s0,24(sp)
800019d6:	44d2                	lw	s1,20(sp)
800019d8:	4942                	lw	s2,16(sp)
800019da:	6105                	addi	sp,sp,32
800019dc:	8082                	ret
800019de:	0074                	addi	a3,sp,12
800019e0:	0030                	addi	a2,sp,8
800019e2:	892a                	mv	s2,a0
800019e4:	3f8d                	jal	80001956 <__swhatbuf_r>
800019e6:	45a2                	lw	a1,8(sp)
800019e8:	84aa                	mv	s1,a0
800019ea:	854a                	mv	a0,s2
800019ec:	227d                	jal	80001b9a <_malloc_r>
800019ee:	ed01                	bnez	a0,80001a06 <__smakebuf_r+0x54>
800019f0:	00c41783          	lh	a5,12(s0)
800019f4:	2007f713          	andi	a4,a5,512
800019f8:	ff69                	bnez	a4,800019d2 <__smakebuf_r+0x20>
800019fa:	9bf1                	andi	a5,a5,-4
800019fc:	0027e793          	ori	a5,a5,2
80001a00:	00f41623          	sh	a5,12(s0)
80001a04:	b7c9                	j	800019c6 <__smakebuf_r+0x14>
80001a06:	00000797          	auipc	a5,0x0
80001a0a:	d9a78793          	addi	a5,a5,-614 # 800017a0 <_cleanup_r>
80001a0e:	02f92423          	sw	a5,40(s2)
80001a12:	00c45783          	lhu	a5,12(s0)
80001a16:	c008                	sw	a0,0(s0)
80001a18:	c808                	sw	a0,16(s0)
80001a1a:	0807e793          	ori	a5,a5,128
80001a1e:	00f41623          	sh	a5,12(s0)
80001a22:	47a2                	lw	a5,8(sp)
80001a24:	c85c                	sw	a5,20(s0)
80001a26:	47b2                	lw	a5,12(sp)
80001a28:	cf91                	beqz	a5,80001a44 <__smakebuf_r+0x92>
80001a2a:	00e41583          	lh	a1,14(s0)
80001a2e:	854a                	mv	a0,s2
80001a30:	21d000ef          	jal	ra,8000244c <_isatty_r>
80001a34:	c901                	beqz	a0,80001a44 <__smakebuf_r+0x92>
80001a36:	00c45783          	lhu	a5,12(s0)
80001a3a:	9bf1                	andi	a5,a5,-4
80001a3c:	0017e793          	ori	a5,a5,1
80001a40:	00f41623          	sh	a5,12(s0)
80001a44:	00c45503          	lhu	a0,12(s0)
80001a48:	8cc9                	or	s1,s1,a0
80001a4a:	00941623          	sh	s1,12(s0)
80001a4e:	b751                	j	800019d2 <__smakebuf_r+0x20>

80001a50 <memset>:
memset():
80001a50:	433d                	li	t1,15
80001a52:	872a                	mv	a4,a0
80001a54:	02c37363          	bgeu	t1,a2,80001a7a <memset+0x2a>
80001a58:	00f77793          	andi	a5,a4,15
80001a5c:	efbd                	bnez	a5,80001ada <memset+0x8a>
80001a5e:	e5ad                	bnez	a1,80001ac8 <memset+0x78>
80001a60:	ff067693          	andi	a3,a2,-16
80001a64:	8a3d                	andi	a2,a2,15
80001a66:	96ba                	add	a3,a3,a4
80001a68:	c30c                	sw	a1,0(a4)
80001a6a:	c34c                	sw	a1,4(a4)
80001a6c:	c70c                	sw	a1,8(a4)
80001a6e:	c74c                	sw	a1,12(a4)
80001a70:	0741                	addi	a4,a4,16
80001a72:	fed76be3          	bltu	a4,a3,80001a68 <memset+0x18>
80001a76:	e211                	bnez	a2,80001a7a <memset+0x2a>
80001a78:	8082                	ret
80001a7a:	40c306b3          	sub	a3,t1,a2
80001a7e:	068a                	slli	a3,a3,0x2
80001a80:	00000297          	auipc	t0,0x0
80001a84:	9696                	add	a3,a3,t0
80001a86:	00a68067          	jr	10(a3) # 100a <__stack_size+0x80a>
80001a8a:	00b70723          	sb	a1,14(a4) # ffffe00e <_sp+0x6ffee00e>
80001a8e:	00b706a3          	sb	a1,13(a4)
80001a92:	00b70623          	sb	a1,12(a4)
80001a96:	00b705a3          	sb	a1,11(a4)
80001a9a:	00b70523          	sb	a1,10(a4)
80001a9e:	00b704a3          	sb	a1,9(a4)
80001aa2:	00b70423          	sb	a1,8(a4)
80001aa6:	00b703a3          	sb	a1,7(a4)
80001aaa:	00b70323          	sb	a1,6(a4)
80001aae:	00b702a3          	sb	a1,5(a4)
80001ab2:	00b70223          	sb	a1,4(a4)
80001ab6:	00b701a3          	sb	a1,3(a4)
80001aba:	00b70123          	sb	a1,2(a4)
80001abe:	00b700a3          	sb	a1,1(a4)
80001ac2:	00b70023          	sb	a1,0(a4)
80001ac6:	8082                	ret
80001ac8:	0ff5f593          	zext.b	a1,a1
80001acc:	00859693          	slli	a3,a1,0x8
80001ad0:	8dd5                	or	a1,a1,a3
80001ad2:	01059693          	slli	a3,a1,0x10
80001ad6:	8dd5                	or	a1,a1,a3
80001ad8:	b761                	j	80001a60 <memset+0x10>
80001ada:	00279693          	slli	a3,a5,0x2
80001ade:	00000297          	auipc	t0,0x0
80001ae2:	9696                	add	a3,a3,t0
80001ae4:	8286                	mv	t0,ra
80001ae6:	fa8680e7          	jalr	-88(a3)
80001aea:	8096                	mv	ra,t0
80001aec:	17c1                	addi	a5,a5,-16
80001aee:	8f1d                	sub	a4,a4,a5
80001af0:	963e                	add	a2,a2,a5
80001af2:	f8c374e3          	bgeu	t1,a2,80001a7a <memset+0x2a>
80001af6:	b7a5                	j	80001a5e <memset+0xe>

80001af8 <_free_r>:
_free_r():
80001af8:	c1c5                	beqz	a1,80001b98 <_free_r+0xa0>
80001afa:	ffc5a783          	lw	a5,-4(a1)
80001afe:	1101                	addi	sp,sp,-32
80001b00:	cc22                	sw	s0,24(sp)
80001b02:	ce06                	sw	ra,28(sp)
80001b04:	ffc58413          	addi	s0,a1,-4
80001b08:	0007d363          	bgez	a5,80001b0e <_free_r+0x16>
80001b0c:	943e                	add	s0,s0,a5
80001b0e:	c62a                	sw	a0,12(sp)
80001b10:	1ab000ef          	jal	ra,800024ba <__malloc_lock>
80001b14:	82c18713          	addi	a4,gp,-2004 # 9000008c <__malloc_free_list>
80001b18:	431c                	lw	a5,0(a4)
80001b1a:	4532                	lw	a0,12(sp)
80001b1c:	eb89                	bnez	a5,80001b2e <_free_r+0x36>
80001b1e:	00042223          	sw	zero,4(s0)
80001b22:	c300                	sw	s0,0(a4)
80001b24:	4462                	lw	s0,24(sp)
80001b26:	40f2                	lw	ra,28(sp)
80001b28:	6105                	addi	sp,sp,32
80001b2a:	1930006f          	j	800024bc <__malloc_unlock>
80001b2e:	00f47d63          	bgeu	s0,a5,80001b48 <_free_r+0x50>
80001b32:	4010                	lw	a2,0(s0)
80001b34:	00c406b3          	add	a3,s0,a2
80001b38:	00d79663          	bne	a5,a3,80001b44 <_free_r+0x4c>
80001b3c:	4394                	lw	a3,0(a5)
80001b3e:	43dc                	lw	a5,4(a5)
80001b40:	96b2                	add	a3,a3,a2
80001b42:	c014                	sw	a3,0(s0)
80001b44:	c05c                	sw	a5,4(s0)
80001b46:	bff1                	j	80001b22 <_free_r+0x2a>
80001b48:	873e                	mv	a4,a5
80001b4a:	43dc                	lw	a5,4(a5)
80001b4c:	c399                	beqz	a5,80001b52 <_free_r+0x5a>
80001b4e:	fef47de3          	bgeu	s0,a5,80001b48 <_free_r+0x50>
80001b52:	4314                	lw	a3,0(a4)
80001b54:	00d70633          	add	a2,a4,a3
80001b58:	00861f63          	bne	a2,s0,80001b76 <_free_r+0x7e>
80001b5c:	4010                	lw	a2,0(s0)
80001b5e:	96b2                	add	a3,a3,a2
80001b60:	c314                	sw	a3,0(a4)
80001b62:	00d70633          	add	a2,a4,a3
80001b66:	fac79fe3          	bne	a5,a2,80001b24 <_free_r+0x2c>
80001b6a:	4390                	lw	a2,0(a5)
80001b6c:	43dc                	lw	a5,4(a5)
80001b6e:	96b2                	add	a3,a3,a2
80001b70:	c314                	sw	a3,0(a4)
80001b72:	c35c                	sw	a5,4(a4)
80001b74:	bf45                	j	80001b24 <_free_r+0x2c>
80001b76:	00c47563          	bgeu	s0,a2,80001b80 <_free_r+0x88>
80001b7a:	47b1                	li	a5,12
80001b7c:	c11c                	sw	a5,0(a0)
80001b7e:	b75d                	j	80001b24 <_free_r+0x2c>
80001b80:	4010                	lw	a2,0(s0)
80001b82:	00c406b3          	add	a3,s0,a2
80001b86:	00d79663          	bne	a5,a3,80001b92 <_free_r+0x9a>
80001b8a:	4394                	lw	a3,0(a5)
80001b8c:	43dc                	lw	a5,4(a5)
80001b8e:	96b2                	add	a3,a3,a2
80001b90:	c014                	sw	a3,0(s0)
80001b92:	c05c                	sw	a5,4(s0)
80001b94:	c340                	sw	s0,4(a4)
80001b96:	b779                	j	80001b24 <_free_r+0x2c>
80001b98:	8082                	ret

80001b9a <_malloc_r>:
_malloc_r():
80001b9a:	1101                	addi	sp,sp,-32
80001b9c:	ca26                	sw	s1,20(sp)
80001b9e:	00358493          	addi	s1,a1,3
80001ba2:	98f1                	andi	s1,s1,-4
80001ba4:	c84a                	sw	s2,16(sp)
80001ba6:	ce06                	sw	ra,28(sp)
80001ba8:	cc22                	sw	s0,24(sp)
80001baa:	c64e                	sw	s3,12(sp)
80001bac:	04a1                	addi	s1,s1,8
80001bae:	47b1                	li	a5,12
80001bb0:	892a                	mv	s2,a0
80001bb2:	04f4f263          	bgeu	s1,a5,80001bf6 <_malloc_r+0x5c>
80001bb6:	44b1                	li	s1,12
80001bb8:	04b4e163          	bltu	s1,a1,80001bfa <_malloc_r+0x60>
80001bbc:	854a                	mv	a0,s2
80001bbe:	0fd000ef          	jal	ra,800024ba <__malloc_lock>
80001bc2:	82c18693          	addi	a3,gp,-2004 # 9000008c <__malloc_free_list>
80001bc6:	4298                	lw	a4,0(a3)
80001bc8:	843a                	mv	s0,a4
80001bca:	e039                	bnez	s0,80001c10 <_malloc_r+0x76>
80001bcc:	83018413          	addi	s0,gp,-2000 # 90000090 <__malloc_sbrk_start>
80001bd0:	401c                	lw	a5,0(s0)
80001bd2:	e789                	bnez	a5,80001bdc <_malloc_r+0x42>
80001bd4:	4581                	li	a1,0
80001bd6:	854a                	mv	a0,s2
80001bd8:	2f11                	jal	800022ec <_sbrk_r>
80001bda:	c008                	sw	a0,0(s0)
80001bdc:	85a6                	mv	a1,s1
80001bde:	854a                	mv	a0,s2
80001be0:	2731                	jal	800022ec <_sbrk_r>
80001be2:	59fd                	li	s3,-1
80001be4:	07351a63          	bne	a0,s3,80001c58 <_malloc_r+0xbe>
80001be8:	47b1                	li	a5,12
80001bea:	00f92023          	sw	a5,0(s2)
80001bee:	854a                	mv	a0,s2
80001bf0:	0cd000ef          	jal	ra,800024bc <__malloc_unlock>
80001bf4:	a031                	j	80001c00 <_malloc_r+0x66>
80001bf6:	fc04d1e3          	bgez	s1,80001bb8 <_malloc_r+0x1e>
80001bfa:	47b1                	li	a5,12
80001bfc:	00f92023          	sw	a5,0(s2)
80001c00:	4501                	li	a0,0
80001c02:	40f2                	lw	ra,28(sp)
80001c04:	4462                	lw	s0,24(sp)
80001c06:	44d2                	lw	s1,20(sp)
80001c08:	4942                	lw	s2,16(sp)
80001c0a:	49b2                	lw	s3,12(sp)
80001c0c:	6105                	addi	sp,sp,32
80001c0e:	8082                	ret
80001c10:	401c                	lw	a5,0(s0)
80001c12:	8f85                	sub	a5,a5,s1
80001c14:	0207cf63          	bltz	a5,80001c52 <_malloc_r+0xb8>
80001c18:	462d                	li	a2,11
80001c1a:	00f67663          	bgeu	a2,a5,80001c26 <_malloc_r+0x8c>
80001c1e:	c01c                	sw	a5,0(s0)
80001c20:	943e                	add	s0,s0,a5
80001c22:	c004                	sw	s1,0(s0)
80001c24:	a029                	j	80001c2e <_malloc_r+0x94>
80001c26:	405c                	lw	a5,4(s0)
80001c28:	02871363          	bne	a4,s0,80001c4e <_malloc_r+0xb4>
80001c2c:	c29c                	sw	a5,0(a3)
80001c2e:	854a                	mv	a0,s2
80001c30:	08d000ef          	jal	ra,800024bc <__malloc_unlock>
80001c34:	00b40513          	addi	a0,s0,11
80001c38:	00440793          	addi	a5,s0,4
80001c3c:	9961                	andi	a0,a0,-8
80001c3e:	40f50733          	sub	a4,a0,a5
80001c42:	fcf500e3          	beq	a0,a5,80001c02 <_malloc_r+0x68>
80001c46:	943a                	add	s0,s0,a4
80001c48:	8f89                	sub	a5,a5,a0
80001c4a:	c01c                	sw	a5,0(s0)
80001c4c:	bf5d                	j	80001c02 <_malloc_r+0x68>
80001c4e:	c35c                	sw	a5,4(a4)
80001c50:	bff9                	j	80001c2e <_malloc_r+0x94>
80001c52:	8722                	mv	a4,s0
80001c54:	4040                	lw	s0,4(s0)
80001c56:	bf95                	j	80001bca <_malloc_r+0x30>
80001c58:	00350413          	addi	s0,a0,3
80001c5c:	9871                	andi	s0,s0,-4
80001c5e:	fc8502e3          	beq	a0,s0,80001c22 <_malloc_r+0x88>
80001c62:	40a405b3          	sub	a1,s0,a0
80001c66:	854a                	mv	a0,s2
80001c68:	2551                	jal	800022ec <_sbrk_r>
80001c6a:	fb351ce3          	bne	a0,s3,80001c22 <_malloc_r+0x88>
80001c6e:	bfad                	j	80001be8 <_malloc_r+0x4e>

80001c70 <__sfputc_r>:
__sfputc_r():
80001c70:	461c                	lw	a5,8(a2)
80001c72:	17fd                	addi	a5,a5,-1
80001c74:	c61c                	sw	a5,8(a2)
80001c76:	0007da63          	bgez	a5,80001c8a <__sfputc_r+0x1a>
80001c7a:	4e18                	lw	a4,24(a2)
80001c7c:	00e7c563          	blt	a5,a4,80001c86 <__sfputc_r+0x16>
80001c80:	47a9                	li	a5,10
80001c82:	00f59463          	bne	a1,a5,80001c8a <__sfputc_r+0x1a>
80001c86:	eceff06f          	j	80001354 <__swbuf_r>
80001c8a:	421c                	lw	a5,0(a2)
80001c8c:	852e                	mv	a0,a1
80001c8e:	00178713          	addi	a4,a5,1
80001c92:	c218                	sw	a4,0(a2)
80001c94:	00b78023          	sb	a1,0(a5)
80001c98:	8082                	ret

80001c9a <__sfputs_r>:
__sfputs_r():
80001c9a:	1101                	addi	sp,sp,-32
80001c9c:	cc22                	sw	s0,24(sp)
80001c9e:	ca26                	sw	s1,20(sp)
80001ca0:	c84a                	sw	s2,16(sp)
80001ca2:	c64e                	sw	s3,12(sp)
80001ca4:	c452                	sw	s4,8(sp)
80001ca6:	ce06                	sw	ra,28(sp)
80001ca8:	892a                	mv	s2,a0
80001caa:	89ae                	mv	s3,a1
80001cac:	8432                	mv	s0,a2
80001cae:	00d604b3          	add	s1,a2,a3
80001cb2:	5a7d                	li	s4,-1
80001cb4:	00941463          	bne	s0,s1,80001cbc <__sfputs_r+0x22>
80001cb8:	4501                	li	a0,0
80001cba:	a809                	j	80001ccc <__sfputs_r+0x32>
80001cbc:	00044583          	lbu	a1,0(s0)
80001cc0:	864e                	mv	a2,s3
80001cc2:	854a                	mv	a0,s2
80001cc4:	3775                	jal	80001c70 <__sfputc_r>
80001cc6:	0405                	addi	s0,s0,1
80001cc8:	ff4516e3          	bne	a0,s4,80001cb4 <__sfputs_r+0x1a>
80001ccc:	40f2                	lw	ra,28(sp)
80001cce:	4462                	lw	s0,24(sp)
80001cd0:	44d2                	lw	s1,20(sp)
80001cd2:	4942                	lw	s2,16(sp)
80001cd4:	49b2                	lw	s3,12(sp)
80001cd6:	4a22                	lw	s4,8(sp)
80001cd8:	6105                	addi	sp,sp,32
80001cda:	8082                	ret

80001cdc <_vfiprintf_r>:
_vfiprintf_r():
80001cdc:	7135                	addi	sp,sp,-160
80001cde:	cd22                	sw	s0,152(sp)
80001ce0:	cb26                	sw	s1,148(sp)
80001ce2:	c94a                	sw	s2,144(sp)
80001ce4:	c74e                	sw	s3,140(sp)
80001ce6:	cf06                	sw	ra,156(sp)
80001ce8:	c552                	sw	s4,136(sp)
80001cea:	c356                	sw	s5,132(sp)
80001cec:	c15a                	sw	s6,128(sp)
80001cee:	dede                	sw	s7,124(sp)
80001cf0:	dce2                	sw	s8,120(sp)
80001cf2:	dae6                	sw	s9,116(sp)
80001cf4:	89aa                	mv	s3,a0
80001cf6:	84ae                	mv	s1,a1
80001cf8:	8932                	mv	s2,a2
80001cfa:	8436                	mv	s0,a3
80001cfc:	c501                	beqz	a0,80001d04 <_vfiprintf_r+0x28>
80001cfe:	4d1c                	lw	a5,24(a0)
80001d00:	e391                	bnez	a5,80001d04 <_vfiprintf_r+0x28>
80001d02:	34f5                	jal	800017ee <__sinit>
80001d04:	00001797          	auipc	a5,0x1
80001d08:	ae078793          	addi	a5,a5,-1312 # 800027e4 <__sf_fake_stdin>
80001d0c:	0cf49b63          	bne	s1,a5,80001de2 <_vfiprintf_r+0x106>
80001d10:	0049a483          	lw	s1,4(s3)
80001d14:	00c4d783          	lhu	a5,12(s1)
80001d18:	8ba1                	andi	a5,a5,8
80001d1a:	c7f5                	beqz	a5,80001e06 <_vfiprintf_r+0x12a>
80001d1c:	489c                	lw	a5,16(s1)
80001d1e:	c7e5                	beqz	a5,80001e06 <_vfiprintf_r+0x12a>
80001d20:	02000793          	li	a5,32
80001d24:	02f104a3          	sb	a5,41(sp)
80001d28:	03000793          	li	a5,48
80001d2c:	d202                	sw	zero,36(sp)
80001d2e:	02f10523          	sb	a5,42(sp)
80001d32:	c622                	sw	s0,12(sp)
80001d34:	02500b93          	li	s7,37
80001d38:	00001a97          	auipc	s5,0x1
80001d3c:	aeca8a93          	addi	s5,s5,-1300 # 80002824 <__sf_fake_stdout+0x20>
80001d40:	4c05                	li	s8,1
80001d42:	4b29                	li	s6,10
80001d44:	844a                	mv	s0,s2
80001d46:	00044783          	lbu	a5,0(s0)
80001d4a:	c399                	beqz	a5,80001d50 <_vfiprintf_r+0x74>
80001d4c:	0f779063          	bne	a5,s7,80001e2c <_vfiprintf_r+0x150>
80001d50:	41240cb3          	sub	s9,s0,s2
80001d54:	01240d63          	beq	s0,s2,80001d6e <_vfiprintf_r+0x92>
80001d58:	86e6                	mv	a3,s9
80001d5a:	864a                	mv	a2,s2
80001d5c:	85a6                	mv	a1,s1
80001d5e:	854e                	mv	a0,s3
80001d60:	3f2d                	jal	80001c9a <__sfputs_r>
80001d62:	57fd                	li	a5,-1
80001d64:	1ef50463          	beq	a0,a5,80001f4c <_vfiprintf_r+0x270>
80001d68:	5792                	lw	a5,36(sp)
80001d6a:	97e6                	add	a5,a5,s9
80001d6c:	d23e                	sw	a5,36(sp)
80001d6e:	00044783          	lbu	a5,0(s0)
80001d72:	1c078d63          	beqz	a5,80001f4c <_vfiprintf_r+0x270>
80001d76:	57fd                	li	a5,-1
80001d78:	00140913          	addi	s2,s0,1
80001d7c:	c802                	sw	zero,16(sp)
80001d7e:	ce02                	sw	zero,28(sp)
80001d80:	ca3e                	sw	a5,20(sp)
80001d82:	cc02                	sw	zero,24(sp)
80001d84:	040109a3          	sb	zero,83(sp)
80001d88:	d482                	sw	zero,104(sp)
80001d8a:	00094583          	lbu	a1,0(s2)
80001d8e:	4615                	li	a2,5
80001d90:	8556                	mv	a0,s5
80001d92:	2739                	jal	800024a0 <memchr>
80001d94:	47c2                	lw	a5,16(sp)
80001d96:	00190413          	addi	s0,s2,1
80001d9a:	e959                	bnez	a0,80001e30 <_vfiprintf_r+0x154>
80001d9c:	0107f713          	andi	a4,a5,16
80001da0:	c709                	beqz	a4,80001daa <_vfiprintf_r+0xce>
80001da2:	02000713          	li	a4,32
80001da6:	04e109a3          	sb	a4,83(sp)
80001daa:	0087f713          	andi	a4,a5,8
80001dae:	c709                	beqz	a4,80001db8 <_vfiprintf_r+0xdc>
80001db0:	02b00713          	li	a4,43
80001db4:	04e109a3          	sb	a4,83(sp)
80001db8:	00094683          	lbu	a3,0(s2)
80001dbc:	02a00713          	li	a4,42
80001dc0:	08e68063          	beq	a3,a4,80001e40 <_vfiprintf_r+0x164>
80001dc4:	47f2                	lw	a5,28(sp)
80001dc6:	844a                	mv	s0,s2
80001dc8:	4681                	li	a3,0
80001dca:	4625                	li	a2,9
80001dcc:	00044703          	lbu	a4,0(s0)
80001dd0:	00140593          	addi	a1,s0,1
80001dd4:	fd070713          	addi	a4,a4,-48
80001dd8:	0ae67963          	bgeu	a2,a4,80001e8a <_vfiprintf_r+0x1ae>
80001ddc:	cab5                	beqz	a3,80001e50 <_vfiprintf_r+0x174>
80001dde:	ce3e                	sw	a5,28(sp)
80001de0:	a885                	j	80001e50 <_vfiprintf_r+0x174>
80001de2:	00001797          	auipc	a5,0x1
80001de6:	a2278793          	addi	a5,a5,-1502 # 80002804 <__sf_fake_stdout>
80001dea:	00f49563          	bne	s1,a5,80001df4 <_vfiprintf_r+0x118>
80001dee:	0089a483          	lw	s1,8(s3)
80001df2:	b70d                	j	80001d14 <_vfiprintf_r+0x38>
80001df4:	00001797          	auipc	a5,0x1
80001df8:	9d078793          	addi	a5,a5,-1584 # 800027c4 <__sf_fake_stderr>
80001dfc:	f0f49ce3          	bne	s1,a5,80001d14 <_vfiprintf_r+0x38>
80001e00:	00c9a483          	lw	s1,12(s3)
80001e04:	bf01                	j	80001d14 <_vfiprintf_r+0x38>
80001e06:	85a6                	mv	a1,s1
80001e08:	854e                	mv	a0,s3
80001e0a:	e0aff0ef          	jal	ra,80001414 <__swsetup_r>
80001e0e:	d909                	beqz	a0,80001d20 <_vfiprintf_r+0x44>
80001e10:	557d                	li	a0,-1
80001e12:	40fa                	lw	ra,156(sp)
80001e14:	446a                	lw	s0,152(sp)
80001e16:	44da                	lw	s1,148(sp)
80001e18:	494a                	lw	s2,144(sp)
80001e1a:	49ba                	lw	s3,140(sp)
80001e1c:	4a2a                	lw	s4,136(sp)
80001e1e:	4a9a                	lw	s5,132(sp)
80001e20:	4b0a                	lw	s6,128(sp)
80001e22:	5bf6                	lw	s7,124(sp)
80001e24:	5c66                	lw	s8,120(sp)
80001e26:	5cd6                	lw	s9,116(sp)
80001e28:	610d                	addi	sp,sp,160
80001e2a:	8082                	ret
80001e2c:	0405                	addi	s0,s0,1
80001e2e:	bf21                	j	80001d46 <_vfiprintf_r+0x6a>
80001e30:	41550533          	sub	a0,a0,s5
80001e34:	00ac1533          	sll	a0,s8,a0
80001e38:	8fc9                	or	a5,a5,a0
80001e3a:	c83e                	sw	a5,16(sp)
80001e3c:	8922                	mv	s2,s0
80001e3e:	b7b1                	j	80001d8a <_vfiprintf_r+0xae>
80001e40:	4732                	lw	a4,12(sp)
80001e42:	00470693          	addi	a3,a4,4
80001e46:	4318                	lw	a4,0(a4)
80001e48:	c636                	sw	a3,12(sp)
80001e4a:	02074963          	bltz	a4,80001e7c <_vfiprintf_r+0x1a0>
80001e4e:	ce3a                	sw	a4,28(sp)
80001e50:	00044703          	lbu	a4,0(s0)
80001e54:	02e00793          	li	a5,46
80001e58:	04f71f63          	bne	a4,a5,80001eb6 <_vfiprintf_r+0x1da>
80001e5c:	00144703          	lbu	a4,1(s0)
80001e60:	02a00793          	li	a5,42
80001e64:	02f71b63          	bne	a4,a5,80001e9a <_vfiprintf_r+0x1be>
80001e68:	47b2                	lw	a5,12(sp)
80001e6a:	0409                	addi	s0,s0,2
80001e6c:	00478713          	addi	a4,a5,4
80001e70:	439c                	lw	a5,0(a5)
80001e72:	c63a                	sw	a4,12(sp)
80001e74:	0207c163          	bltz	a5,80001e96 <_vfiprintf_r+0x1ba>
80001e78:	ca3e                	sw	a5,20(sp)
80001e7a:	a835                	j	80001eb6 <_vfiprintf_r+0x1da>
80001e7c:	40e00733          	neg	a4,a4
80001e80:	0027e793          	ori	a5,a5,2
80001e84:	ce3a                	sw	a4,28(sp)
80001e86:	c83e                	sw	a5,16(sp)
80001e88:	b7e1                	j	80001e50 <_vfiprintf_r+0x174>
80001e8a:	036787b3          	mul	a5,a5,s6
80001e8e:	842e                	mv	s0,a1
80001e90:	4685                	li	a3,1
80001e92:	97ba                	add	a5,a5,a4
80001e94:	bf25                	j	80001dcc <_vfiprintf_r+0xf0>
80001e96:	57fd                	li	a5,-1
80001e98:	b7c5                	j	80001e78 <_vfiprintf_r+0x19c>
80001e9a:	0405                	addi	s0,s0,1
80001e9c:	ca02                	sw	zero,20(sp)
80001e9e:	4681                	li	a3,0
80001ea0:	4781                	li	a5,0
80001ea2:	4625                	li	a2,9
80001ea4:	00044703          	lbu	a4,0(s0)
80001ea8:	00140593          	addi	a1,s0,1
80001eac:	fd070713          	addi	a4,a4,-48
80001eb0:	06e67463          	bgeu	a2,a4,80001f18 <_vfiprintf_r+0x23c>
80001eb4:	f2f1                	bnez	a3,80001e78 <_vfiprintf_r+0x19c>
80001eb6:	00044583          	lbu	a1,0(s0)
80001eba:	460d                	li	a2,3
80001ebc:	00001517          	auipc	a0,0x1
80001ec0:	97050513          	addi	a0,a0,-1680 # 8000282c <__sf_fake_stdout+0x28>
80001ec4:	2bf1                	jal	800024a0 <memchr>
80001ec6:	cd11                	beqz	a0,80001ee2 <_vfiprintf_r+0x206>
80001ec8:	00001797          	auipc	a5,0x1
80001ecc:	96478793          	addi	a5,a5,-1692 # 8000282c <__sf_fake_stdout+0x28>
80001ed0:	8d1d                	sub	a0,a0,a5
80001ed2:	04000793          	li	a5,64
80001ed6:	00a797b3          	sll	a5,a5,a0
80001eda:	4542                	lw	a0,16(sp)
80001edc:	0405                	addi	s0,s0,1
80001ede:	8d5d                	or	a0,a0,a5
80001ee0:	c82a                	sw	a0,16(sp)
80001ee2:	00044583          	lbu	a1,0(s0)
80001ee6:	4619                	li	a2,6
80001ee8:	00001517          	auipc	a0,0x1
80001eec:	94850513          	addi	a0,a0,-1720 # 80002830 <__sf_fake_stdout+0x2c>
80001ef0:	00140913          	addi	s2,s0,1
80001ef4:	02b10423          	sb	a1,40(sp)
80001ef8:	2365                	jal	800024a0 <memchr>
80001efa:	c12d                	beqz	a0,80001f5c <_vfiprintf_r+0x280>
80001efc:	00000793          	li	a5,0
80001f00:	e795                	bnez	a5,80001f2c <_vfiprintf_r+0x250>
80001f02:	4742                	lw	a4,16(sp)
80001f04:	47b2                	lw	a5,12(sp)
80001f06:	10077713          	andi	a4,a4,256
80001f0a:	cf09                	beqz	a4,80001f24 <_vfiprintf_r+0x248>
80001f0c:	0791                	addi	a5,a5,4
80001f0e:	c63e                	sw	a5,12(sp)
80001f10:	5792                	lw	a5,36(sp)
80001f12:	97d2                	add	a5,a5,s4
80001f14:	d23e                	sw	a5,36(sp)
80001f16:	b53d                	j	80001d44 <_vfiprintf_r+0x68>
80001f18:	036787b3          	mul	a5,a5,s6
80001f1c:	842e                	mv	s0,a1
80001f1e:	4685                	li	a3,1
80001f20:	97ba                	add	a5,a5,a4
80001f22:	b749                	j	80001ea4 <_vfiprintf_r+0x1c8>
80001f24:	079d                	addi	a5,a5,7
80001f26:	9be1                	andi	a5,a5,-8
80001f28:	07a1                	addi	a5,a5,8
80001f2a:	b7d5                	j	80001f0e <_vfiprintf_r+0x232>
80001f2c:	0078                	addi	a4,sp,12
80001f2e:	00000697          	auipc	a3,0x0
80001f32:	d6c68693          	addi	a3,a3,-660 # 80001c9a <__sfputs_r>
80001f36:	8626                	mv	a2,s1
80001f38:	080c                	addi	a1,sp,16
80001f3a:	854e                	mv	a0,s3
80001f3c:	00000097          	auipc	ra,0x0
80001f40:	000000e7          	jalr	zero # 0 <__stack_size-0x800>
80001f44:	57fd                	li	a5,-1
80001f46:	8a2a                	mv	s4,a0
80001f48:	fcf514e3          	bne	a0,a5,80001f10 <_vfiprintf_r+0x234>
80001f4c:	00c4d783          	lhu	a5,12(s1)
80001f50:	0407f793          	andi	a5,a5,64
80001f54:	ea079ee3          	bnez	a5,80001e10 <_vfiprintf_r+0x134>
80001f58:	5512                	lw	a0,36(sp)
80001f5a:	bd65                	j	80001e12 <_vfiprintf_r+0x136>
80001f5c:	0078                	addi	a4,sp,12
80001f5e:	00000697          	auipc	a3,0x0
80001f62:	d3c68693          	addi	a3,a3,-708 # 80001c9a <__sfputs_r>
80001f66:	8626                	mv	a2,s1
80001f68:	080c                	addi	a1,sp,16
80001f6a:	854e                	mv	a0,s3
80001f6c:	2a01                	jal	8000207c <_printf_i>
80001f6e:	bfd9                	j	80001f44 <_vfiprintf_r+0x268>

80001f70 <_printf_common>:
_printf_common():
80001f70:	7179                	addi	sp,sp,-48
80001f72:	cc52                	sw	s4,24(sp)
80001f74:	499c                	lw	a5,16(a1)
80001f76:	8a3a                	mv	s4,a4
80001f78:	4598                	lw	a4,8(a1)
80001f7a:	d422                	sw	s0,40(sp)
80001f7c:	d226                	sw	s1,36(sp)
80001f7e:	ce4e                	sw	s3,28(sp)
80001f80:	ca56                	sw	s5,20(sp)
80001f82:	d606                	sw	ra,44(sp)
80001f84:	d04a                	sw	s2,32(sp)
80001f86:	c85a                	sw	s6,16(sp)
80001f88:	c65e                	sw	s7,12(sp)
80001f8a:	89aa                	mv	s3,a0
80001f8c:	842e                	mv	s0,a1
80001f8e:	84b2                	mv	s1,a2
80001f90:	8ab6                	mv	s5,a3
80001f92:	00e7d363          	bge	a5,a4,80001f98 <_printf_common+0x28>
80001f96:	87ba                	mv	a5,a4
80001f98:	c09c                	sw	a5,0(s1)
80001f9a:	04344703          	lbu	a4,67(s0)
80001f9e:	c319                	beqz	a4,80001fa4 <_printf_common+0x34>
80001fa0:	0785                	addi	a5,a5,1
80001fa2:	c09c                	sw	a5,0(s1)
80001fa4:	401c                	lw	a5,0(s0)
80001fa6:	0207f793          	andi	a5,a5,32
80001faa:	c781                	beqz	a5,80001fb2 <_printf_common+0x42>
80001fac:	409c                	lw	a5,0(s1)
80001fae:	0789                	addi	a5,a5,2
80001fb0:	c09c                	sw	a5,0(s1)
80001fb2:	00042903          	lw	s2,0(s0)
80001fb6:	00697913          	andi	s2,s2,6
80001fba:	00091a63          	bnez	s2,80001fce <_printf_common+0x5e>
80001fbe:	01940b13          	addi	s6,s0,25
80001fc2:	5bfd                	li	s7,-1
80001fc4:	445c                	lw	a5,12(s0)
80001fc6:	4098                	lw	a4,0(s1)
80001fc8:	8f99                	sub	a5,a5,a4
80001fca:	04f94c63          	blt	s2,a5,80002022 <_printf_common+0xb2>
80001fce:	04344783          	lbu	a5,67(s0)
80001fd2:	00f036b3          	snez	a3,a5
80001fd6:	401c                	lw	a5,0(s0)
80001fd8:	0207f793          	andi	a5,a5,32
80001fdc:	eba5                	bnez	a5,8000204c <_printf_common+0xdc>
80001fde:	04340613          	addi	a2,s0,67
80001fe2:	85d6                	mv	a1,s5
80001fe4:	854e                	mv	a0,s3
80001fe6:	9a02                	jalr	s4
80001fe8:	57fd                	li	a5,-1
80001fea:	04f50363          	beq	a0,a5,80002030 <_printf_common+0xc0>
80001fee:	401c                	lw	a5,0(s0)
80001ff0:	4611                	li	a2,4
80001ff2:	4098                	lw	a4,0(s1)
80001ff4:	8b99                	andi	a5,a5,6
80001ff6:	4454                	lw	a3,12(s0)
80001ff8:	4481                	li	s1,0
80001ffa:	00c79763          	bne	a5,a2,80002008 <_printf_common+0x98>
80001ffe:	40e684b3          	sub	s1,a3,a4
80002002:	0004d363          	bgez	s1,80002008 <_printf_common+0x98>
80002006:	4481                	li	s1,0
80002008:	441c                	lw	a5,8(s0)
8000200a:	4818                	lw	a4,16(s0)
8000200c:	00f75463          	bge	a4,a5,80002014 <_printf_common+0xa4>
80002010:	8f99                	sub	a5,a5,a4
80002012:	94be                	add	s1,s1,a5
80002014:	4901                	li	s2,0
80002016:	0469                	addi	s0,s0,26
80002018:	5b7d                	li	s6,-1
8000201a:	05249863          	bne	s1,s2,8000206a <_printf_common+0xfa>
8000201e:	4501                	li	a0,0
80002020:	a809                	j	80002032 <_printf_common+0xc2>
80002022:	4685                	li	a3,1
80002024:	865a                	mv	a2,s6
80002026:	85d6                	mv	a1,s5
80002028:	854e                	mv	a0,s3
8000202a:	9a02                	jalr	s4
8000202c:	01751e63          	bne	a0,s7,80002048 <_printf_common+0xd8>
80002030:	557d                	li	a0,-1
80002032:	50b2                	lw	ra,44(sp)
80002034:	5422                	lw	s0,40(sp)
80002036:	5492                	lw	s1,36(sp)
80002038:	5902                	lw	s2,32(sp)
8000203a:	49f2                	lw	s3,28(sp)
8000203c:	4a62                	lw	s4,24(sp)
8000203e:	4ad2                	lw	s5,20(sp)
80002040:	4b42                	lw	s6,16(sp)
80002042:	4bb2                	lw	s7,12(sp)
80002044:	6145                	addi	sp,sp,48
80002046:	8082                	ret
80002048:	0905                	addi	s2,s2,1
8000204a:	bfad                	j	80001fc4 <_printf_common+0x54>
8000204c:	00d40733          	add	a4,s0,a3
80002050:	03000613          	li	a2,48
80002054:	04c701a3          	sb	a2,67(a4)
80002058:	04544703          	lbu	a4,69(s0)
8000205c:	00168793          	addi	a5,a3,1
80002060:	97a2                	add	a5,a5,s0
80002062:	0689                	addi	a3,a3,2
80002064:	04e781a3          	sb	a4,67(a5)
80002068:	bf9d                	j	80001fde <_printf_common+0x6e>
8000206a:	4685                	li	a3,1
8000206c:	8622                	mv	a2,s0
8000206e:	85d6                	mv	a1,s5
80002070:	854e                	mv	a0,s3
80002072:	9a02                	jalr	s4
80002074:	fb650ee3          	beq	a0,s6,80002030 <_printf_common+0xc0>
80002078:	0905                	addi	s2,s2,1
8000207a:	b745                	j	8000201a <_printf_common+0xaa>

8000207c <_printf_i>:
_printf_i():
8000207c:	7179                	addi	sp,sp,-48
8000207e:	d422                	sw	s0,40(sp)
80002080:	d226                	sw	s1,36(sp)
80002082:	d04a                	sw	s2,32(sp)
80002084:	ce4e                	sw	s3,28(sp)
80002086:	d606                	sw	ra,44(sp)
80002088:	cc52                	sw	s4,24(sp)
8000208a:	ca56                	sw	s5,20(sp)
8000208c:	c85a                	sw	s6,16(sp)
8000208e:	0185c803          	lbu	a6,24(a1)
80002092:	07800793          	li	a5,120
80002096:	84aa                	mv	s1,a0
80002098:	842e                	mv	s0,a1
8000209a:	8932                	mv	s2,a2
8000209c:	89b6                	mv	s3,a3
8000209e:	0107ee63          	bltu	a5,a6,800020ba <_printf_i+0x3e>
800020a2:	06200793          	li	a5,98
800020a6:	04358693          	addi	a3,a1,67
800020aa:	0107ed63          	bltu	a5,a6,800020c4 <_printf_i+0x48>
800020ae:	1c080563          	beqz	a6,80002278 <_printf_i+0x1fc>
800020b2:	05800793          	li	a5,88
800020b6:	12f80a63          	beq	a6,a5,800021ea <_printf_i+0x16e>
800020ba:	04240a93          	addi	s5,s0,66
800020be:	05040123          	sb	a6,66(s0)
800020c2:	a815                	j	800020f6 <_printf_i+0x7a>
800020c4:	f9d80793          	addi	a5,a6,-99
800020c8:	0ff7f793          	zext.b	a5,a5
800020cc:	4655                	li	a2,21
800020ce:	fef666e3          	bltu	a2,a5,800020ba <_printf_i+0x3e>
800020d2:	00000617          	auipc	a2,0x0
800020d6:	78e60613          	addi	a2,a2,1934 # 80002860 <__sf_fake_stdout+0x5c>
800020da:	078a                	slli	a5,a5,0x2
800020dc:	97b2                	add	a5,a5,a2
800020de:	439c                	lw	a5,0(a5)
800020e0:	97b2                	add	a5,a5,a2
800020e2:	8782                	jr	a5
800020e4:	431c                	lw	a5,0(a4)
800020e6:	04258a93          	addi	s5,a1,66
800020ea:	00478693          	addi	a3,a5,4
800020ee:	439c                	lw	a5,0(a5)
800020f0:	c314                	sw	a3,0(a4)
800020f2:	04f58123          	sb	a5,66(a1)
800020f6:	4785                	li	a5,1
800020f8:	a25d                	j	8000229e <_printf_i+0x222>
800020fa:	419c                	lw	a5,0(a1)
800020fc:	4308                	lw	a0,0(a4)
800020fe:	0807f613          	andi	a2,a5,128
80002102:	00450593          	addi	a1,a0,4
80002106:	c20d                	beqz	a2,80002128 <_printf_i+0xac>
80002108:	411c                	lw	a5,0(a0)
8000210a:	c30c                	sw	a1,0(a4)
8000210c:	0007d863          	bgez	a5,8000211c <_printf_i+0xa0>
80002110:	02d00713          	li	a4,45
80002114:	40f007b3          	neg	a5,a5
80002118:	04e401a3          	sb	a4,67(s0)
8000211c:	00000617          	auipc	a2,0x0
80002120:	71c60613          	addi	a2,a2,1820 # 80002838 <__sf_fake_stdout+0x34>
80002124:	4829                	li	a6,10
80002126:	a0a1                	j	8000216e <_printf_i+0xf2>
80002128:	0407f613          	andi	a2,a5,64
8000212c:	411c                	lw	a5,0(a0)
8000212e:	c30c                	sw	a1,0(a4)
80002130:	de71                	beqz	a2,8000210c <_printf_i+0x90>
80002132:	07c2                	slli	a5,a5,0x10
80002134:	87c1                	srai	a5,a5,0x10
80002136:	bfd9                	j	8000210c <_printf_i+0x90>
80002138:	4190                	lw	a2,0(a1)
8000213a:	431c                	lw	a5,0(a4)
8000213c:	08067513          	andi	a0,a2,128
80002140:	00478593          	addi	a1,a5,4
80002144:	c501                	beqz	a0,8000214c <_printf_i+0xd0>
80002146:	c30c                	sw	a1,0(a4)
80002148:	439c                	lw	a5,0(a5)
8000214a:	a039                	j	80002158 <_printf_i+0xdc>
8000214c:	04067613          	andi	a2,a2,64
80002150:	c30c                	sw	a1,0(a4)
80002152:	da7d                	beqz	a2,80002148 <_printf_i+0xcc>
80002154:	0007d783          	lhu	a5,0(a5)
80002158:	06f00713          	li	a4,111
8000215c:	00000617          	auipc	a2,0x0
80002160:	6dc60613          	addi	a2,a2,1756 # 80002838 <__sf_fake_stdout+0x34>
80002164:	0ee80463          	beq	a6,a4,8000224c <_printf_i+0x1d0>
80002168:	4829                	li	a6,10
8000216a:	040401a3          	sb	zero,67(s0)
8000216e:	4058                	lw	a4,4(s0)
80002170:	c418                	sw	a4,8(s0)
80002172:	00074563          	bltz	a4,8000217c <_printf_i+0x100>
80002176:	400c                	lw	a1,0(s0)
80002178:	99ed                	andi	a1,a1,-5
8000217a:	c00c                	sw	a1,0(s0)
8000217c:	e399                	bnez	a5,80002182 <_printf_i+0x106>
8000217e:	8ab6                	mv	s5,a3
80002180:	cf19                	beqz	a4,8000219e <_printf_i+0x122>
80002182:	8ab6                	mv	s5,a3
80002184:	0307f733          	remu	a4,a5,a6
80002188:	1afd                	addi	s5,s5,-1
8000218a:	9732                	add	a4,a4,a2
8000218c:	00074703          	lbu	a4,0(a4)
80002190:	00ea8023          	sb	a4,0(s5)
80002194:	873e                	mv	a4,a5
80002196:	0307d7b3          	divu	a5,a5,a6
8000219a:	ff0775e3          	bgeu	a4,a6,80002184 <_printf_i+0x108>
8000219e:	47a1                	li	a5,8
800021a0:	00f81e63          	bne	a6,a5,800021bc <_printf_i+0x140>
800021a4:	401c                	lw	a5,0(s0)
800021a6:	8b85                	andi	a5,a5,1
800021a8:	cb91                	beqz	a5,800021bc <_printf_i+0x140>
800021aa:	4058                	lw	a4,4(s0)
800021ac:	481c                	lw	a5,16(s0)
800021ae:	00e7c763          	blt	a5,a4,800021bc <_printf_i+0x140>
800021b2:	03000793          	li	a5,48
800021b6:	fefa8fa3          	sb	a5,-1(s5)
800021ba:	1afd                	addi	s5,s5,-1
800021bc:	415686b3          	sub	a3,a3,s5
800021c0:	c814                	sw	a3,16(s0)
800021c2:	874e                	mv	a4,s3
800021c4:	86ca                	mv	a3,s2
800021c6:	0070                	addi	a2,sp,12
800021c8:	85a2                	mv	a1,s0
800021ca:	8526                	mv	a0,s1
800021cc:	3355                	jal	80001f70 <_printf_common>
800021ce:	5a7d                	li	s4,-1
800021d0:	0d451b63          	bne	a0,s4,800022a6 <_printf_i+0x22a>
800021d4:	557d                	li	a0,-1
800021d6:	50b2                	lw	ra,44(sp)
800021d8:	5422                	lw	s0,40(sp)
800021da:	5492                	lw	s1,36(sp)
800021dc:	5902                	lw	s2,32(sp)
800021de:	49f2                	lw	s3,28(sp)
800021e0:	4a62                	lw	s4,24(sp)
800021e2:	4ad2                	lw	s5,20(sp)
800021e4:	4b42                	lw	s6,16(sp)
800021e6:	6145                	addi	sp,sp,48
800021e8:	8082                	ret
800021ea:	050582a3          	sb	a6,69(a1)
800021ee:	00000617          	auipc	a2,0x0
800021f2:	64a60613          	addi	a2,a2,1610 # 80002838 <__sf_fake_stdout+0x34>
800021f6:	400c                	lw	a1,0(s0)
800021f8:	4308                	lw	a0,0(a4)
800021fa:	0805f813          	andi	a6,a1,128
800021fe:	411c                	lw	a5,0(a0)
80002200:	0511                	addi	a0,a0,4
80002202:	02080d63          	beqz	a6,8000223c <_printf_i+0x1c0>
80002206:	c308                	sw	a0,0(a4)
80002208:	0015f713          	andi	a4,a1,1
8000220c:	c701                	beqz	a4,80002214 <_printf_i+0x198>
8000220e:	0205e593          	ori	a1,a1,32
80002212:	c00c                	sw	a1,0(s0)
80002214:	4841                	li	a6,16
80002216:	fbb1                	bnez	a5,8000216a <_printf_i+0xee>
80002218:	4018                	lw	a4,0(s0)
8000221a:	fdf77713          	andi	a4,a4,-33
8000221e:	c018                	sw	a4,0(s0)
80002220:	b7a9                	j	8000216a <_printf_i+0xee>
80002222:	419c                	lw	a5,0(a1)
80002224:	0207e793          	ori	a5,a5,32
80002228:	c19c                	sw	a5,0(a1)
8000222a:	07800793          	li	a5,120
8000222e:	04f402a3          	sb	a5,69(s0)
80002232:	00000617          	auipc	a2,0x0
80002236:	61a60613          	addi	a2,a2,1562 # 8000284c <__sf_fake_stdout+0x48>
8000223a:	bf75                	j	800021f6 <_printf_i+0x17a>
8000223c:	0405f813          	andi	a6,a1,64
80002240:	c308                	sw	a0,0(a4)
80002242:	fc0803e3          	beqz	a6,80002208 <_printf_i+0x18c>
80002246:	07c2                	slli	a5,a5,0x10
80002248:	83c1                	srli	a5,a5,0x10
8000224a:	bf7d                	j	80002208 <_printf_i+0x18c>
8000224c:	4821                	li	a6,8
8000224e:	bf31                	j	8000216a <_printf_i+0xee>
80002250:	4190                	lw	a2,0(a1)
80002252:	431c                	lw	a5,0(a4)
80002254:	49cc                	lw	a1,20(a1)
80002256:	08067813          	andi	a6,a2,128
8000225a:	00478513          	addi	a0,a5,4
8000225e:	00080663          	beqz	a6,8000226a <_printf_i+0x1ee>
80002262:	c308                	sw	a0,0(a4)
80002264:	439c                	lw	a5,0(a5)
80002266:	c38c                	sw	a1,0(a5)
80002268:	a801                	j	80002278 <_printf_i+0x1fc>
8000226a:	c308                	sw	a0,0(a4)
8000226c:	04067613          	andi	a2,a2,64
80002270:	439c                	lw	a5,0(a5)
80002272:	da75                	beqz	a2,80002266 <_printf_i+0x1ea>
80002274:	00b79023          	sh	a1,0(a5)
80002278:	00042823          	sw	zero,16(s0)
8000227c:	8ab6                	mv	s5,a3
8000227e:	b791                	j	800021c2 <_printf_i+0x146>
80002280:	431c                	lw	a5,0(a4)
80002282:	41d0                	lw	a2,4(a1)
80002284:	4581                	li	a1,0
80002286:	00478693          	addi	a3,a5,4
8000228a:	c314                	sw	a3,0(a4)
8000228c:	0007aa83          	lw	s5,0(a5)
80002290:	8556                	mv	a0,s5
80002292:	2439                	jal	800024a0 <memchr>
80002294:	c501                	beqz	a0,8000229c <_printf_i+0x220>
80002296:	41550533          	sub	a0,a0,s5
8000229a:	c048                	sw	a0,4(s0)
8000229c:	405c                	lw	a5,4(s0)
8000229e:	c81c                	sw	a5,16(s0)
800022a0:	040401a3          	sb	zero,67(s0)
800022a4:	bf39                	j	800021c2 <_printf_i+0x146>
800022a6:	4814                	lw	a3,16(s0)
800022a8:	8656                	mv	a2,s5
800022aa:	85ca                	mv	a1,s2
800022ac:	8526                	mv	a0,s1
800022ae:	9982                	jalr	s3
800022b0:	f34502e3          	beq	a0,s4,800021d4 <_printf_i+0x158>
800022b4:	401c                	lw	a5,0(s0)
800022b6:	8b89                	andi	a5,a5,2
800022b8:	e78d                	bnez	a5,800022e2 <_printf_i+0x266>
800022ba:	47b2                	lw	a5,12(sp)
800022bc:	4448                	lw	a0,12(s0)
800022be:	f0f55ce3          	bge	a0,a5,800021d6 <_printf_i+0x15a>
800022c2:	853e                	mv	a0,a5
800022c4:	bf09                	j	800021d6 <_printf_i+0x15a>
800022c6:	4685                	li	a3,1
800022c8:	8656                	mv	a2,s5
800022ca:	85ca                	mv	a1,s2
800022cc:	8526                	mv	a0,s1
800022ce:	9982                	jalr	s3
800022d0:	f16502e3          	beq	a0,s6,800021d4 <_printf_i+0x158>
800022d4:	0a05                	addi	s4,s4,1
800022d6:	445c                	lw	a5,12(s0)
800022d8:	4732                	lw	a4,12(sp)
800022da:	8f99                	sub	a5,a5,a4
800022dc:	fefa45e3          	blt	s4,a5,800022c6 <_printf_i+0x24a>
800022e0:	bfe9                	j	800022ba <_printf_i+0x23e>
800022e2:	4a01                	li	s4,0
800022e4:	01940a93          	addi	s5,s0,25
800022e8:	5b7d                	li	s6,-1
800022ea:	b7f5                	j	800022d6 <_printf_i+0x25a>

800022ec <_sbrk_r>:
_sbrk_r():
800022ec:	1141                	addi	sp,sp,-16
800022ee:	c422                	sw	s0,8(sp)
800022f0:	842a                	mv	s0,a0
800022f2:	852e                	mv	a0,a1
800022f4:	8201a223          	sw	zero,-2012(gp) # 90000084 <errno>
800022f8:	c606                	sw	ra,12(sp)
800022fa:	e93fd0ef          	jal	ra,8000018c <_sbrk>
800022fe:	57fd                	li	a5,-1
80002300:	00f51663          	bne	a0,a5,8000230c <_sbrk_r+0x20>
80002304:	8241a783          	lw	a5,-2012(gp) # 90000084 <errno>
80002308:	c391                	beqz	a5,8000230c <_sbrk_r+0x20>
8000230a:	c01c                	sw	a5,0(s0)
8000230c:	40b2                	lw	ra,12(sp)
8000230e:	4422                	lw	s0,8(sp)
80002310:	0141                	addi	sp,sp,16
80002312:	8082                	ret

80002314 <__sread>:
__sread():
80002314:	1141                	addi	sp,sp,-16
80002316:	c422                	sw	s0,8(sp)
80002318:	842e                	mv	s0,a1
8000231a:	00e59583          	lh	a1,14(a1)
8000231e:	c606                	sw	ra,12(sp)
80002320:	2a79                	jal	800024be <_read_r>
80002322:	00054963          	bltz	a0,80002334 <__sread+0x20>
80002326:	487c                	lw	a5,84(s0)
80002328:	97aa                	add	a5,a5,a0
8000232a:	c87c                	sw	a5,84(s0)
8000232c:	40b2                	lw	ra,12(sp)
8000232e:	4422                	lw	s0,8(sp)
80002330:	0141                	addi	sp,sp,16
80002332:	8082                	ret
80002334:	00c45783          	lhu	a5,12(s0)
80002338:	777d                	lui	a4,0xfffff
8000233a:	177d                	addi	a4,a4,-1
8000233c:	8ff9                	and	a5,a5,a4
8000233e:	00f41623          	sh	a5,12(s0)
80002342:	b7ed                	j	8000232c <__sread+0x18>

80002344 <__swrite>:
__swrite():
80002344:	00c5d783          	lhu	a5,12(a1)
80002348:	1101                	addi	sp,sp,-32
8000234a:	cc22                	sw	s0,24(sp)
8000234c:	ca26                	sw	s1,20(sp)
8000234e:	c84a                	sw	s2,16(sp)
80002350:	c64e                	sw	s3,12(sp)
80002352:	ce06                	sw	ra,28(sp)
80002354:	1007f793          	andi	a5,a5,256
80002358:	84aa                	mv	s1,a0
8000235a:	842e                	mv	s0,a1
8000235c:	8932                	mv	s2,a2
8000235e:	89b6                	mv	s3,a3
80002360:	c791                	beqz	a5,8000236c <__swrite+0x28>
80002362:	00e59583          	lh	a1,14(a1)
80002366:	4689                	li	a3,2
80002368:	4601                	li	a2,0
8000236a:	2229                	jal	80002474 <_lseek_r>
8000236c:	00c45783          	lhu	a5,12(s0)
80002370:	777d                	lui	a4,0xfffff
80002372:	177d                	addi	a4,a4,-1
80002374:	8ff9                	and	a5,a5,a4
80002376:	00e41583          	lh	a1,14(s0)
8000237a:	00f41623          	sh	a5,12(s0)
8000237e:	4462                	lw	s0,24(sp)
80002380:	40f2                	lw	ra,28(sp)
80002382:	86ce                	mv	a3,s3
80002384:	864a                	mv	a2,s2
80002386:	49b2                	lw	s3,12(sp)
80002388:	4942                	lw	s2,16(sp)
8000238a:	8526                	mv	a0,s1
8000238c:	44d2                	lw	s1,20(sp)
8000238e:	6105                	addi	sp,sp,32
80002390:	a83d                	j	800023ce <_write_r>

80002392 <__sseek>:
__sseek():
80002392:	1141                	addi	sp,sp,-16
80002394:	c422                	sw	s0,8(sp)
80002396:	842e                	mv	s0,a1
80002398:	00e59583          	lh	a1,14(a1)
8000239c:	c606                	sw	ra,12(sp)
8000239e:	28d9                	jal	80002474 <_lseek_r>
800023a0:	57fd                	li	a5,-1
800023a2:	00c45703          	lhu	a4,12(s0)
800023a6:	00f51b63          	bne	a0,a5,800023bc <__sseek+0x2a>
800023aa:	77fd                	lui	a5,0xfffff
800023ac:	17fd                	addi	a5,a5,-1
800023ae:	8ff9                	and	a5,a5,a4
800023b0:	00f41623          	sh	a5,12(s0)
800023b4:	40b2                	lw	ra,12(sp)
800023b6:	4422                	lw	s0,8(sp)
800023b8:	0141                	addi	sp,sp,16
800023ba:	8082                	ret
800023bc:	6785                	lui	a5,0x1
800023be:	8fd9                	or	a5,a5,a4
800023c0:	00f41623          	sh	a5,12(s0)
800023c4:	c868                	sw	a0,84(s0)
800023c6:	b7fd                	j	800023b4 <__sseek+0x22>

800023c8 <__sclose>:
__sclose():
800023c8:	00e59583          	lh	a1,14(a1)
800023cc:	a03d                	j	800023fa <_close_r>

800023ce <_write_r>:
_write_r():
800023ce:	1141                	addi	sp,sp,-16
800023d0:	c422                	sw	s0,8(sp)
800023d2:	842a                	mv	s0,a0
800023d4:	852e                	mv	a0,a1
800023d6:	85b2                	mv	a1,a2
800023d8:	8636                	mv	a2,a3
800023da:	8201a223          	sw	zero,-2012(gp) # 90000084 <errno>
800023de:	c606                	sw	ra,12(sp)
800023e0:	e25fd0ef          	jal	ra,80000204 <_write>
800023e4:	57fd                	li	a5,-1
800023e6:	00f51663          	bne	a0,a5,800023f2 <_write_r+0x24>
800023ea:	8241a783          	lw	a5,-2012(gp) # 90000084 <errno>
800023ee:	c391                	beqz	a5,800023f2 <_write_r+0x24>
800023f0:	c01c                	sw	a5,0(s0)
800023f2:	40b2                	lw	ra,12(sp)
800023f4:	4422                	lw	s0,8(sp)
800023f6:	0141                	addi	sp,sp,16
800023f8:	8082                	ret

800023fa <_close_r>:
_close_r():
800023fa:	1141                	addi	sp,sp,-16
800023fc:	c422                	sw	s0,8(sp)
800023fe:	842a                	mv	s0,a0
80002400:	852e                	mv	a0,a1
80002402:	8201a223          	sw	zero,-2012(gp) # 90000084 <errno>
80002406:	c606                	sw	ra,12(sp)
80002408:	cb5fd0ef          	jal	ra,800000bc <_close>
8000240c:	57fd                	li	a5,-1
8000240e:	00f51663          	bne	a0,a5,8000241a <_close_r+0x20>
80002412:	8241a783          	lw	a5,-2012(gp) # 90000084 <errno>
80002416:	c391                	beqz	a5,8000241a <_close_r+0x20>
80002418:	c01c                	sw	a5,0(s0)
8000241a:	40b2                	lw	ra,12(sp)
8000241c:	4422                	lw	s0,8(sp)
8000241e:	0141                	addi	sp,sp,16
80002420:	8082                	ret

80002422 <_fstat_r>:
_fstat_r():
80002422:	1141                	addi	sp,sp,-16
80002424:	c422                	sw	s0,8(sp)
80002426:	842a                	mv	s0,a0
80002428:	852e                	mv	a0,a1
8000242a:	85b2                	mv	a1,a2
8000242c:	8201a223          	sw	zero,-2012(gp) # 90000084 <errno>
80002430:	c606                	sw	ra,12(sp)
80002432:	ca7fd0ef          	jal	ra,800000d8 <_fstat>
80002436:	57fd                	li	a5,-1
80002438:	00f51663          	bne	a0,a5,80002444 <_fstat_r+0x22>
8000243c:	8241a783          	lw	a5,-2012(gp) # 90000084 <errno>
80002440:	c391                	beqz	a5,80002444 <_fstat_r+0x22>
80002442:	c01c                	sw	a5,0(s0)
80002444:	40b2                	lw	ra,12(sp)
80002446:	4422                	lw	s0,8(sp)
80002448:	0141                	addi	sp,sp,16
8000244a:	8082                	ret

8000244c <_isatty_r>:
_isatty_r():
8000244c:	1141                	addi	sp,sp,-16
8000244e:	c422                	sw	s0,8(sp)
80002450:	842a                	mv	s0,a0
80002452:	852e                	mv	a0,a1
80002454:	8201a223          	sw	zero,-2012(gp) # 90000084 <errno>
80002458:	c606                	sw	ra,12(sp)
8000245a:	cbffd0ef          	jal	ra,80000118 <_isatty>
8000245e:	57fd                	li	a5,-1
80002460:	00f51663          	bne	a0,a5,8000246c <_isatty_r+0x20>
80002464:	8241a783          	lw	a5,-2012(gp) # 90000084 <errno>
80002468:	c391                	beqz	a5,8000246c <_isatty_r+0x20>
8000246a:	c01c                	sw	a5,0(s0)
8000246c:	40b2                	lw	ra,12(sp)
8000246e:	4422                	lw	s0,8(sp)
80002470:	0141                	addi	sp,sp,16
80002472:	8082                	ret

80002474 <_lseek_r>:
_lseek_r():
80002474:	1141                	addi	sp,sp,-16
80002476:	c422                	sw	s0,8(sp)
80002478:	842a                	mv	s0,a0
8000247a:	852e                	mv	a0,a1
8000247c:	85b2                	mv	a1,a2
8000247e:	8636                	mv	a2,a3
80002480:	8201a223          	sw	zero,-2012(gp) # 90000084 <errno>
80002484:	c606                	sw	ra,12(sp)
80002486:	ca7fd0ef          	jal	ra,8000012c <_lseek>
8000248a:	57fd                	li	a5,-1
8000248c:	00f51663          	bne	a0,a5,80002498 <_lseek_r+0x24>
80002490:	8241a783          	lw	a5,-2012(gp) # 90000084 <errno>
80002494:	c391                	beqz	a5,80002498 <_lseek_r+0x24>
80002496:	c01c                	sw	a5,0(s0)
80002498:	40b2                	lw	ra,12(sp)
8000249a:	4422                	lw	s0,8(sp)
8000249c:	0141                	addi	sp,sp,16
8000249e:	8082                	ret

800024a0 <memchr>:
memchr():
800024a0:	0ff5f593          	zext.b	a1,a1
800024a4:	962a                	add	a2,a2,a0
800024a6:	00c51463          	bne	a0,a2,800024ae <memchr+0xe>
800024aa:	4501                	li	a0,0
800024ac:	8082                	ret
800024ae:	00054783          	lbu	a5,0(a0)
800024b2:	feb78de3          	beq	a5,a1,800024ac <memchr+0xc>
800024b6:	0505                	addi	a0,a0,1
800024b8:	b7fd                	j	800024a6 <memchr+0x6>

800024ba <__malloc_lock>:
__malloc_lock():
800024ba:	8082                	ret

800024bc <__malloc_unlock>:
__malloc_unlock():
800024bc:	8082                	ret

800024be <_read_r>:
_read_r():
800024be:	1141                	addi	sp,sp,-16
800024c0:	c422                	sw	s0,8(sp)
800024c2:	842a                	mv	s0,a0
800024c4:	852e                	mv	a0,a1
800024c6:	85b2                	mv	a1,a2
800024c8:	8636                	mv	a2,a3
800024ca:	8201a223          	sw	zero,-2012(gp) # 90000084 <errno>
800024ce:	c606                	sw	ra,12(sp)
800024d0:	c79fd0ef          	jal	ra,80000148 <_read>
800024d4:	57fd                	li	a5,-1
800024d6:	00f51663          	bne	a0,a5,800024e2 <_read_r+0x24>
800024da:	8241a783          	lw	a5,-2012(gp) # 90000084 <errno>
800024de:	c391                	beqz	a5,800024e2 <_read_r+0x24>
800024e0:	c01c                	sw	a5,0(s0)
800024e2:	40b2                	lw	ra,12(sp)
800024e4:	4422                	lw	s0,8(sp)
800024e6:	0141                	addi	sp,sp,16
800024e8:	8082                	ret
